(dp0
S'battery'
p1
(dp2
I0
(lp3
F100.0
aF100.0
aF100.0
aF100.0
aF100.0
aF100.0
aF100.0
aF100.0
aF100.0
aF100.0
aF100.0
aF100.0
aF100.0
aF100.0
aF100.0
aF100.0
aF100.0
aF100.0
aF100.0
aF100.0
aF100.0
aF100.0
aF100.0
aF100.0
aF100.0
aF100.0
aF100.0
aF100.0
aF100.0
aF100.0
aF100.0
aF100.0
aF100.0
aF100.0
aF100.0
aF100.0
aF100.0
aF100.0
aF100.0
aF100.0
aF100.0
aF100.0
aF100.0
aF100.0
aF100.0
aF100.0
aF100.0
aF100.0
aF100.0
aF100.0
aF100.0
aF100.0
aF100.0
aF100.0
aF100.0
aF100.0
aF100.0
aF100.0
aF100.0
aF100.0
aF100.0
aF100.0
aF100.0
aF100.0
aF100.0
aF100.0
aF100.0
aF100.0
aF100.0
aF100.0
aF100.0
aF100.0
aF100.0
aF100.0
aF100.0
aF100.0
aF100.0
aF100.0
aF100.0
aF100.0
aF100.0
aF100.0
aF99.5999984741211
aF98.69999694824219
aF97.69999694824219
aF96.69999694824219
aF95.5999984741211
aF94.5999984741211
aF93.69999694824219
aF92.69999694824219
aF91.5999984741211
aF90.5999984741211
aF89.5999984741211
aF88.69999694824219
aF87.3499984741211
aF86.3499984741211
aF85.3499984741211
aF84.3499984741211
aF83.44999694824219
aF82.3499984741211
aF81.3499984741211
aF80.44999694824219
aF79.44999694824219
aF78.44999694824219
aF77.44999694824219
aF76.44999694824219
aF75.44999694824219
aF74.3499984741211
aF73.44999694824219
aF72.44999694824219
aF71.44999694824219
aF70.19999694824219
aF69.0999984741211
aF68.0999984741211
aF67.0999984741211
aF66.19999694824219
aF65.19999694824219
aF64.19999694824219
aF63.20000076293945
aF62.20000076293945
aF61.20000076293945
aF60.20000076293945
aF59.20000076293945
aF58.20000076293945
aF57.099998474121094
aF56.20000076293945
aF55.20000076293945
aF54.20000076293945
aF53.099998474121094
aF52.099998474121094
aF50.95000076293945
aF49.95000076293945
aF48.849998474121094
aF47.849998474121094
aF46.849998474121094
aF45.95000076293945
aF44.95000076293945
aF43.849998474121094
aF42.849998474121094
aF41.849998474121094
aF40.95000076293945
aF39.849998474121094
aF38.849998474121094
aF37.849998474121094
aF36.849998474121094
aF35.95000076293945
aF34.95000076293945
aF33.95000076293945
aF32.95000076293945
aF31.950000762939453
aF30.950000762939453
aF29.950000762939453
aF28.850000381469727
aF28.100000381469727
aF27.700000762939453
aF26.799999237060547
aF25.799999237060547
aF24.700000762939453
aF23.700000762939453
aF22.700000762939453
aF21.799999237060547
aF20.700000762939453
aF19.700000762939453
aF18.700000762939453
aF17.700000762939453
aF16.799999237060547
aF15.800000190734863
aF14.800000190734863
aF13.800000190734863
aF12.800000190734863
aF11.800000190734863
aF10.800000190734863
aF9.800000190734863
aF8.699999809265137
aF7.699999809265137
aF6.800000190734863
aF5.449999809265137
aF4.449999809265137
aF3.450000047683716
aF2.549999952316284
aF1.5499999523162842
aF0.44999998807907104
aF-0.44999998807907104
aF-1.4500000476837158
aF-2.450000047683716
aF-3.450000047683716
aF-4.550000190734863
aF-5.449999809265137
aF-6.449999809265137
aF-7.449999809265137
aF-8.550000190734863
aF-9.550000190734863
aF-10.449999809265137
aF-11.449999809265137
aF-12.699999809265137
aF-13.800000190734863
aF-14.699999809265137
aF-15.699999809265137
aF-16.799999237060547
aF-17.799999237060547
aF-18.799999237060547
aF-19.700000762939453
aF-20.799999237060547
aF-21.799999237060547
aF-22.799999237060547
aF-23.700000762939453
aF-24.700000762939453
aF-25.700000762939453
aF-26.700000762939453
aF-27.700000762939453
aF-28.799999237060547
aF-29.700000762939453
aF-30.700000762939453
aF-31.700000762939453
aF-33.04999923706055
aF-33.95000076293945
aF-34.95000076293945
aF-35.95000076293945
aF-37.04999923706055
aF-38.04999923706055
aF-38.95000076293945
aF-39.95000076293945
aF-41.04999923706055
aF-42.04999923706055
aF-42.95000076293945
aF-43.95000076293945
aF-44.95000076293945
aF-46.04999923706055
aF-47.04999923706055
aF-47.95000076293945
aF-48.95000076293945
aF-50.04999923706055
aF-51.20000076293945
aF-51.20000076293945
aF-52.20000076293945
aF-53.099998474121094
aF-54.099998474121094
aF-55.099998474121094
aF-56.099998474121094
aF-57.20000076293945
aF-58.099998474121094
aF-59.099998474121094
aF-60.099998474121094
aF-61.20000076293945
aF-62.20000076293945
aF-63.099998474121094
aF-64.0999984741211
aF-65.19999694824219
aF-66.19999694824219
aF-67.19999694824219
aF-68.0999984741211
aF-69.19999694824219
aF-70.19999694824219
aF-71.19999694824219
aF-72.19999694824219
aF99.5
aF98.5999984741211
aF97.5999984741211
aF96.5999984741211
aF95.5999984741211
aF94.5
aF93.5999984741211
aF92.5999984741211
aF91.5999984741211
aF90.5
aF89.5
aF88.5999984741211
aF87.5999984741211
aF86.5
aF85.5
aF84.3499984741211
aF83.3499984741211
aF82.25
aF81.25
aF80.3499984741211
aF79.3499984741211
aF78.25
aF77.25
aF76.25
aF75.3499984741211
aF74.3499984741211
aF73.25
aF72.25
aF71.25
aF70.3499984741211
aF69.25
aF68.25
aF67.0
aF66.0999984741211
aF65.0999984741211
aF64.0999984741211
aF63.099998474121094
aF62.099998474121094
aF61.099998474121094
aF60.099998474121094
aF59.099998474121094
aF58.099998474121094
aF57.099998474121094
aF56.0
aF55.099998474121094
aF54.099998474121094
aF53.099998474121094
aF52.0
aF51.0
aF50.099998474121094
aF49.099998474121094
aF48.099998474121094
aF47.849998474121094
aF46.95000076293945
aF45.95000076293945
aF44.849998474121094
aF43.849998474121094
aF42.95000076293945
aF41.95000076293945
aF40.849998474121094
aF39.849998474121094
aF38.849998474121094
aF37.95000076293945
aF36.849998474121094
aF35.849998474121094
aF34.849998474121094
aF33.849998474121094
aF32.849998474121094
aF31.850000381469727
aF30.850000381469727
aF29.850000381469727
aF28.950000762939453
aF27.950000762939453
aF26.950000762939453
aF25.700000762939453
aF24.799999237060547
aF23.700000762939453
aF22.700000762939453
aF21.700000762939453
aF20.700000762939453
aF19.700000762939453
aF18.799999237060547
aF17.799999237060547
aF16.799999237060547
aF15.699999809265137
aF14.800000190734863
aF13.800000190734863
aF12.800000190734863
aF11.699999809265137
aF10.699999809265137
aF9.800000190734863
aF8.800000190734863
aF7.699999809265137
aF6.699999809265137
aF5.699999809265137
aF4.800000190734863
aF3.450000047683716
aF2.450000047683716
aF1.4500000476837158
aF0.550000011920929
aF-0.550000011920929
aF-1.5499999523162842
aF-2.549999952316284
aF-3.549999952316284
aF-4.550000190734863
aF-5.550000190734863
aF-6.550000190734863
aF-7.449999809265137
aF-8.550000190734863
aF-9.449999809265137
aF-10.449999809265137
aF-11.449999809265137
aF-12.449999809265137
aF-13.449999809265137
aF-14.449999809265137
aF-15.699999809265137
aF-16.700000762939453
aF-17.700000762939453
aF-18.700000762939453
aF-19.600000381469727
aF-20.600000381469727
aF-21.700000762939453
aF-22.600000381469727
aF-23.600000381469727
aF-24.600000381469727
aF-25.700000762939453
aF-26.700000762939453
aF-27.600000381469727
aF-28.600000381469727
aF-29.600000381469727
aF-30.700000762939453
aF-31.700000762939453
aF-32.599998474121094
aF-33.599998474121094
aF-34.70000076293945
aF-35.04999923706055
aF-35.849998474121094
aF-36.75
aF-37.75
aF-38.75
aF-39.75
aF-40.75
aF-41.849998474121094
aF-42.75
aF-43.75
aF-44.75
aF-45.849998474121094
aF-46.849998474121094
aF99.5
aF98.5
aF97.4000015258789
aF96.5
aF95.5
aF94.5
aF93.5
aF92.4000015258789
aF91.5
aF90.5
aF89.5
aF88.4000015258789
aF87.4000015258789
aF86.5
aF85.1500015258789
aF84.25
aF83.25
aF82.25
aF81.25
aF80.1500015258789
aF79.25
aF78.25
aF77.25
aF76.1500015258789
aF75.1500015258789
aF74.25
aF73.25
aF72.1500015258789
aF71.1500015258789
aF70.1500015258789
aF69.25
aF67.9000015258789
aF66.9000015258789
aF66.0
aF65.0
aF64.0
aF63.0
aF62.0
aF61.0
aF60.0
aF58.900001525878906
aF58.0
aF57.0
aF56.0
aF54.900001525878906
aF53.900001525878906
aF53.0
aF52.0
aF50.900001525878906
aF49.900001525878906
aF48.849998474121094
aF48.849998474121094
aF47.849998474121094
aF46.849998474121094
aF45.849998474121094
aF44.849998474121094
aF43.849998474121094
aF42.75
aF41.849998474121094
aF40.849998474121094
aF39.849998474121094
aF38.849998474121094
aF37.75
aF36.849998474121094
aF35.849998474121094
aF34.849998474121094
aF33.75
aF32.75
aF31.850000381469727
aF30.850000381469727
aF29.75
aF28.75
aF27.75
aF26.600000381469727
aF25.5
aF24.5
aF23.5
aF22.600000381469727
aF21.600000381469727
aF20.5
aF19.5
aF18.5
aF17.600000381469727
aF16.5
aF15.5
aF14.5
aF13.5
aF12.600000381469727
aF11.600000381469727
aF10.600000381469727
aF9.600000381469727
aF8.5
aF7.599999904632568
aF6.599999904632568
aF5.599999904632568
aF4.25
aF3.25
aF2.25
aF1.25
aF0.25
aF-0.75
aF-1.75
aF-2.75
aF-3.6500000953674316
aF-4.650000095367432
aF-5.650000095367432
aF-6.650000095367432
aF-7.650000095367432
aF-8.75
aF-9.649999618530273
aF-10.649999618530273
aF-11.649999618530273
aF-12.75
aF-13.75
aF-15.0
aF-15.899999618530273
aF-16.899999618530273
aF-17.899999618530273
aF-18.899999618530273
aF-19.899999618530273
aF-20.899999618530273
aF-22.0
aF-22.899999618530273
aF-23.899999618530273
aF-24.899999618530273
aF-26.0
aF-27.0
aF-27.899999618530273
aF-28.899999618530273
aF-30.0
aF-31.0
aF-32.0
aF-32.900001525878906
aF-33.349998474121094
aF-34.150001525878906
aF-35.150001525878906
aF-36.04999923706055
aF-37.04999923706055
aF-38.150001525878906
aF-39.150001525878906
aF-40.150001525878906
aF-41.04999923706055
aF-42.150001525878906
aF-43.150001525878906
aF-44.150001525878906
aF-45.150001525878906
aF99.4000015258789
aF98.4000015258789
aF97.5
aF96.5
aF95.4000015258789
aF94.4000015258789
aF93.4000015258789
aF92.5
aF91.4000015258789
aF90.4000015258789
aF89.4000015258789
aF88.5
aF87.4000015258789
aF86.4000015258789
aF85.1500015258789
aF84.1500015258789
aF83.1500015258789
aF82.25
aF81.25
aF80.25
aF79.25
aF78.25
aF77.25
aF76.25
aF75.25
aF74.1500015258789
aF73.1500015258789
aF72.25
aF71.25
aF70.1500015258789
aF69.1500015258789
aF67.9000015258789
aF66.9000015258789
aF66.0
aF65.0
aF64.0
aF63.0
aF62.0
aF61.0
aF60.0
aF59.0
aF58.0
aF56.900001525878906
aF56.0
aF55.0
aF54.0
aF52.900001525878906
aF51.900001525878906
aF50.900001525878906
aF50.0
aF48.849998474121094
aF48.849998474121094
aF47.849998474121094
aF46.849998474121094
aF45.849998474121094
aF44.75
aF43.75
aF42.849998474121094
aF41.849998474121094
aF40.849998474121094
aF39.75
aF38.75
aF37.849998474121094
aF36.849998474121094
aF35.849998474121094
aF34.75
aF33.75
aF32.849998474121094
aF31.850000381469727
aF30.75
aF29.75
aF28.75
aF27.850000381469727
aF26.5
aF25.5
aF24.600000381469727
aF23.600000381469727
aF22.5
aF21.5
aF20.5
aF19.600000381469727
aF18.5
aF17.5
aF16.5
aF15.5
aF14.5
aF13.5
aF12.600000381469727
aF11.600000381469727
aF10.600000381469727
aF9.600000381469727
aF8.600000381469727
aF7.599999904632568
aF6.599999904632568
aF5.5
aF4.349999904632568
aF3.3499999046325684
aF2.3499999046325684
aF1.25
aF0.25
aF-0.6499999761581421
aF-1.649999976158142
aF-2.75
aF-3.75
aF-4.75
aF-5.650000095367432
aF-6.75
aF-7.75
aF-8.75
aF-9.75
aF-10.75
aF-11.649999618530273
aF-12.649999618530273
aF-13.649999618530273
aF-15.0
aF-16.0
aF-17.0
aF-17.899999618530273
aF-19.0
aF-20.0
aF-21.0
aF-22.0
aF-22.899999618530273
aF-23.899999618530273
aF-24.899999618530273
aF-25.899999618530273
aF-26.899999618530273
aF-27.899999618530273
aF-28.899999618530273
aF-29.899999618530273
aF-30.899999618530273
aF-32.0
aF-32.900001525878906
aF-33.349998474121094
aF-34.150001525878906
aF-35.04999923706055
aF-36.04999923706055
aF-37.04999923706055
aF-38.04999923706055
aF-39.150001525878906
aF-40.04999923706055
aF-41.04999923706055
aF-42.04999923706055
aF-43.150001525878906
aF-44.150001525878906
aF-45.04999923706055
aF99.5
aF98.4000015258789
aF97.5
aF96.5
aF95.5
aF94.4000015258789
aF93.4000015258789
aF92.5
aF91.5
aF90.4000015258789
aF89.4000015258789
aF88.4000015258789
aF87.5
aF86.4000015258789
aF85.1500015258789
aF84.25
aF83.25
aF82.25
aF81.1500015258789
aF80.1500015258789
aF79.25
aF78.25
aF77.1500015258789
aF76.1500015258789
aF75.1500015258789
aF74.25
aF73.1500015258789
aF72.1500015258789
aF71.1500015258789
aF70.25
aF69.25
aF68.0
aF67.0
aF66.0999984741211
aF65.0
aF64.0
aF63.0
aF62.0
aF61.0
aF60.099998474121094
aF59.099998474121094
aF58.099998474121094
aF57.099998474121094
aF56.099998474121094
aF55.099998474121094
aF54.099998474121094
aF53.099998474121094
aF52.0
aF51.099998474121094
aF50.099998474121094
aF49.099998474121094
aF48.849998474121094
aF47.95000076293945
aF46.95000076293945
aF45.95000076293945
aF44.849998474121094
aF43.95000076293945
aF42.95000076293945
aF41.95000076293945
aF40.849998474121094
aF39.849998474121094
aF38.95000076293945
aF37.95000076293945
aF36.849998474121094
aF35.849998474121094
aF34.849998474121094
aF33.95000076293945
aF32.95000076293945
aF31.850000381469727
aF30.850000381469727
aF29.850000381469727
aF28.950000762939453
aF27.850000381469727
aF26.600000381469727
aF25.600000381469727
aF24.700000762939453
aF23.600000381469727
aF22.600000381469727
aF21.600000381469727
aF20.600000381469727
aF19.600000381469727
aF18.700000762939453
aF17.700000762939453
aF16.700000762939453
aF15.600000381469727
aF14.699999809265137
aF13.699999809265137
aF12.699999809265137
aF11.699999809265137
aF10.600000381469727
aF9.699999809265137
aF8.699999809265137
aF7.699999809265137
aF6.599999904632568
aF5.599999904632568
aF4.449999809265137
aF3.450000047683716
aF2.3499999046325684
aF1.350000023841858
aF0.44999998807907104
aF-0.550000011920929
aF-1.649999976158142
aF-2.6500000953674316
aF-3.6500000953674316
aF-4.550000190734863
aF-5.650000095367432
aF-6.650000095367432
aF-7.650000095367432
aF-8.649999618530273
aF-9.649999618530273
aF-10.550000190734863
aF-11.550000190734863
aF-12.550000190734863
aF-13.649999618530273
aF-14.899999618530273
aF-15.899999618530273
aF-16.799999237060547
aF-17.899999618530273
aF-18.899999618530273
aF-19.899999618530273
aF-20.899999618530273
aF-21.899999618530273
aF-22.799999237060547
aF-23.799999237060547
aF-24.799999237060547
aF-25.899999618530273
aF-26.799999237060547
aF-27.799999237060547
aF-28.799999237060547
aF-29.899999618530273
aF-30.899999618530273
aF-31.799999237060547
aF-32.79999923706055
aF-33.349998474121094
aF-33.95000076293945
aF-34.95000076293945
aF-35.95000076293945
aF-36.95000076293945
aF-38.04999923706055
aF-38.95000076293945
aF-39.95000076293945
aF-40.95000076293945
aF-42.04999923706055
aF-43.04999923706055
aF-43.95000076293945
aF-44.95000076293945
aF99.5
aF98.5
aF97.5999984741211
aF96.5999984741211
aF95.5
aF94.5
aF93.5
aF92.5999984741211
aF91.5
aF90.5
aF89.5
aF88.5
aF87.5
aF86.5999984741211
aF85.3499984741211
aF84.3499984741211
aF83.25
aF82.3499984741211
aF81.3499984741211
aF80.3499984741211
aF79.25
aF78.25
aF77.3499984741211
aF76.3499984741211
aF75.25
aF74.25
aF73.25
aF72.3499984741211
aF71.3499984741211
aF70.25
aF69.25
aF68.0999984741211
aF67.19999694824219
aF66.19999694824219
aF65.19999694824219
aF64.19999694824219
aF63.20000076293945
aF62.099998474121094
aF61.099998474121094
aF60.099998474121094
aF59.20000076293945
aF58.20000076293945
aF57.20000076293945
aF56.099998474121094
aF55.099998474121094
aF54.20000076293945
aF53.20000076293945
aF52.20000076293945
aF51.099998474121094
aF50.099998474121094
aF49.099998474121094
aF48.849998474121094
aF47.849998474121094
aF46.849998474121094
aF45.95000076293945
aF44.95000076293945
aF43.95000076293945
aF42.849998474121094
aF41.849998474121094
aF40.849998474121094
aF39.95000076293945
aF38.849998474121094
aF37.849998474121094
aF36.849998474121094
aF35.849998474121094
aF34.849998474121094
aF33.849998474121094
aF32.95000076293945
aF31.950000762939453
aF30.950000762939453
aF29.950000762939453
aF28.950000762939453
aF27.950000762939453
aF26.700000762939453
aF25.600000381469727
aF24.600000381469727
aF23.600000381469727
aF22.600000381469727
aF21.600000381469727
aF20.600000381469727
aF19.600000381469727
aF18.600000381469727
aF17.700000762939453
aF16.700000762939453
aF15.699999809265137
aF14.699999809265137
aF13.699999809265137
aF12.600000381469727
aF11.699999809265137
aF10.699999809265137
aF9.699999809265137
aF8.600000381469727
aF7.699999809265137
aF6.699999809265137
aF5.699999809265137
aF4.449999809265137
aF3.3499999046325684
aF2.3499999046325684
aF1.4500000476837158
aF0.3499999940395355
aF-0.6499999761581421
aF-1.649999976158142
aF-2.6500000953674316
aF-3.549999952316284
aF-4.650000095367432
aF-5.650000095367432
aF-6.650000095367432
aF-7.550000190734863
aF-8.550000190734863
aF-9.550000190734863
aF-10.550000190734863
aF-11.550000190734863
aF-12.649999618530273
aF-13.649999618530273
aF-14.899999618530273
aF-15.800000190734863
aF-16.899999618530273
aF-17.899999618530273
aF-18.899999618530273
aF-19.899999618530273
aF-20.899999618530273
aF-21.799999237060547
aF-22.799999237060547
aF-23.799999237060547
aF-24.799999237060547
aF-25.899999618530273
aF-26.799999237060547
aF-27.799999237060547
aF-28.799999237060547
aF-29.899999618530273
aF-30.899999618530273
aF-31.799999237060547
aF-32.79999923706055
aF-33.349998474121094
aF-34.04999923706055
aF-35.04999923706055
aF-36.04999923706055
aF-36.95000076293945
aF-37.95000076293945
aF-38.95000076293945
aF-39.95000076293945
aF-40.95000076293945
aF-42.04999923706055
aF-42.95000076293945
aF-43.95000076293945
aF-44.95000076293945
aF99.5
aF98.5999984741211
aF97.5999984741211
aF96.5999984741211
aF95.5
aF94.5
aF93.5999984741211
aF92.5999984741211
aF91.5
aF90.5
aF89.5
aF88.5999984741211
aF87.5
aF86.5
aF85.3499984741211
aF84.3499984741211
aF83.3499984741211
aF82.25
aF81.25
aF80.3499984741211
aF79.3499984741211
aF78.25
aF77.25
aF76.25
aF75.3499984741211
aF74.3499984741211
aF73.25
aF72.25
aF71.3499984741211
aF70.3499984741211
aF69.25
aF68.0
aF67.0999984741211
aF66.0999984741211
aF65.0
aF64.0
aF63.0
aF62.099998474121094
aF61.099998474121094
aF60.0
aF59.0
aF58.0
aF57.099998474121094
aF56.0
aF55.0
aF54.0
aF53.0
aF52.099998474121094
aF51.099998474121094
aF50.099998474121094
aF49.099998474121094
aF48.849998474121094
aF47.75
aF46.75
aF45.75
aF44.849998474121094
aF43.849998474121094
aF42.849998474121094
aF41.849998474121094
aF40.849998474121094
aF39.75
aF38.849998474121094
aF37.849998474121094
aF36.849998474121094
aF35.75
aF34.75
aF33.849998474121094
aF32.849998474121094
aF31.75
aF30.75
aF29.75
aF28.850000381469727
aF27.75
aF26.5
aF25.600000381469727
aF24.600000381469727
aF23.5
aF22.5
aF21.5
aF20.600000381469727
aF19.5
aF18.5
aF17.5
aF16.5
aF15.600000381469727
aF14.5
aF13.600000381469727
aF12.600000381469727
aF11.600000381469727
aF10.600000381469727
aF9.600000381469727
aF8.600000381469727
aF7.599999904632568
aF6.5
aF5.599999904632568
aF4.349999904632568
aF3.3499999046325684
aF2.25
aF1.25
aF0.3499999940395355
aF-0.6499999761581421
aF-1.75
aF-2.75
aF-3.75
aF-4.650000095367432
aF-5.75
aF-6.75
aF-7.75
aF-8.649999618530273
aF-9.75
aF-10.649999618530273
aF-11.649999618530273
aF-12.649999618530273
aF-13.649999618530273
aF-14.899999618530273
aF-15.899999618530273
aF-16.799999237060547
aF-17.799999237060547
aF-18.799999237060547
aF-19.799999237060547
aF-20.799999237060547
aF-21.799999237060547
aF-22.899999618530273
aF-23.799999237060547
aF-24.799999237060547
aF-25.799999237060547
aF-26.899999618530273
aF-27.899999618530273
aF-28.799999237060547
aF-29.799999237060547
aF-30.899999618530273
aF-31.899999618530273
aF-32.900001525878906
aF-33.349998474121094
aF-34.04999923706055
aF-35.150001525878906
aF-36.150001525878906
aF-37.150001525878906
aF-38.04999923706055
aF-39.150001525878906
aF-40.150001525878906
aF-41.150001525878906
aF-42.150001525878906
aF-43.04999923706055
aF-44.04999923706055
aF-45.04999923706055
aF99.5
aF98.5
aF97.5
aF96.5
aF95.5
aF94.5
aF93.4000015258789
aF92.5
aF91.5
aF90.5
aF89.4000015258789
aF88.4000015258789
aF87.4000015258789
aF86.5
aF85.1500015258789
aF84.1500015258789
aF83.1500015258789
aF82.25
aF81.25
aF80.25
aF79.25
aF78.25
aF77.25
aF76.1500015258789
aF75.25
aF74.25
aF73.25
aF72.1500015258789
aF71.1500015258789
aF70.25
aF69.25
aF67.9000015258789
aF66.9000015258789
aF65.9000015258789
aF64.9000015258789
aF64.0
aF63.0
aF62.0
aF61.0
aF59.900001525878906
aF59.0
aF58.0
aF57.0
aF56.0
aF54.900001525878906
aF54.0
aF53.0
aF52.0
aF50.900001525878906
aF49.900001525878906
aF48.95000076293945
aF48.849998474121094
aF47.75
aF46.75
aF45.75
aF44.75
aF43.75
aF42.75
aF41.849998474121094
aF40.849998474121094
aF39.849998474121094
aF38.849998474121094
aF37.849998474121094
aF36.849998474121094
aF35.849998474121094
aF34.75
aF33.849998474121094
aF32.849998474121094
aF31.850000381469727
aF30.75
aF29.75
aF28.75
aF27.850000381469727
aF26.5
aF25.5
aF24.5
aF23.5
aF22.5
aF21.5
aF20.5
aF19.5
aF18.600000381469727
aF17.600000381469727
aF16.600000381469727
aF15.600000381469727
aF14.600000381469727
aF13.5
aF12.600000381469727
aF11.600000381469727
aF10.600000381469727
aF9.5
aF8.5
aF7.5
aF6.599999904632568
aF5.5
aF4.25
aF3.25
aF2.3499999046325684
aF1.25
aF0.25
aF-0.75
aF-1.75
aF-2.75
aF-3.6500000953674316
aF-4.650000095367432
aF-5.650000095367432
aF-6.650000095367432
aF-7.650000095367432
aF-8.649999618530273
aF-9.649999618530273
aF-10.649999618530273
aF-11.75
aF-12.649999618530273
aF-14.0
aF-14.899999618530273
aF-16.0
aF-17.0
aF-18.0
aF-19.0
aF-19.899999618530273
aF-21.0
aF-22.0
aF-23.0
aF-24.0
aF-25.0
aF-25.899999618530273
aF-26.899999618530273
aF-27.899999618530273
aF-29.0
aF-29.899999618530273
aF-30.899999618530273
aF-31.899999618530273
aF-32.900001525878906
aF-33.150001525878906
aF-34.04999923706055
aF-35.04999923706055
aF-36.150001525878906
aF-37.150001525878906
aF-38.04999923706055
aF-39.04999923706055
aF-40.150001525878906
aF-41.150001525878906
aF-42.150001525878906
aF-43.150001525878906
aF-44.150001525878906
aF-45.150001525878906
aF99.4000015258789
aF98.4000015258789
aF97.4000015258789
aF96.30000305175781
aF95.30000305175781
aF94.4000015258789
aF93.4000015258789
aF92.30000305175781
aF91.30000305175781
aF90.30000305175781
aF89.4000015258789
aF88.30000305175781
aF87.30000305175781
aF86.30000305175781
aF85.1500015258789
aF84.05000305175781
aF83.1500015258789
aF82.1500015258789
aF81.1500015258789
aF80.1500015258789
aF79.05000305175781
aF78.1500015258789
aF77.1500015258789
aF76.1500015258789
aF75.05000305175781
aF74.05000305175781
aF73.05000305175781
aF72.1500015258789
aF71.05000305175781
aF70.05000305175781
aF69.05000305175781
aF68.0
aF66.9000015258789
aF65.9000015258789
aF64.9000015258789
aF64.0
aF62.900001525878906
aF61.900001525878906
aF60.900001525878906
aF59.900001525878906
aF58.900001525878906
aF57.900001525878906
aF57.0
aF56.0
aF55.0
aF54.0
aF53.0
aF52.0
aF50.900001525878906
aF50.0
aF48.849998474121094
aF48.75
aF47.849998474121094
aF46.75
aF45.75
aF44.75
aF43.849998474121094
aF42.849998474121094
aF41.849998474121094
aF40.849998474121094
aF39.849998474121094
aF38.75
aF37.849998474121094
aF36.849998474121094
aF35.849998474121094
aF34.75
aF33.75
aF32.849998474121094
aF31.850000381469727
aF30.75
aF29.75
aF28.75
aF27.850000381469727
aF26.5
aF25.5
aF24.5
aF23.600000381469727
aF22.600000381469727
aF21.5
aF20.5
aF19.5
aF18.600000381469727
aF17.5
aF16.5
aF15.600000381469727
aF14.600000381469727
aF13.5
aF12.600000381469727
aF11.600000381469727
aF10.600000381469727
aF9.600000381469727
aF8.5
aF7.599999904632568
aF6.599999904632568
aF5.599999904632568
aF4.25
aF3.3499999046325684
aF2.3499999046325684
aF1.350000023841858
aF0.25
aF-0.75
aF-1.649999976158142
aF-2.6500000953674316
aF-3.75
aF-4.75
aF-5.75
aF-6.650000095367432
aF-7.75
aF-8.75
aF-9.75
aF-10.75
aF-11.649999618530273
aF-12.649999618530273
aF-13.649999618530273
aF-14.800000190734863
aF-15.899999618530273
aF-16.899999618530273
aF-17.899999618530273
aF-18.899999618530273
aF-19.799999237060547
aF-20.799999237060547
aF-21.799999237060547
aF-22.799999237060547
aF-23.799999237060547
aF-24.799999237060547
aF-25.799999237060547
aF-26.799999237060547
aF-27.799999237060547
aF-28.899999618530273
aF-29.799999237060547
aF-30.799999237060547
aF-31.799999237060547
aF-32.900001525878906
aF-33.349998474121094
aF-34.04999923706055
aF-35.04999923706055
aF-35.95000076293945
aF-37.04999923706055
aF-37.95000076293945
aF-38.95000076293945
aF-39.95000076293945
aF-40.95000076293945
aF-41.95000076293945
aF-42.95000076293945
aF-43.95000076293945
aF-45.04999923706055
aF99.5999984741211
aF98.5999984741211
aF97.5999984741211
aF96.5999984741211
aF95.5999984741211
aF94.69999694824219
aF93.69999694824219
aF92.5999984741211
aF91.69999694824219
aF90.69999694824219
aF89.69999694824219
aF88.69999694824219
aF87.5999984741211
aF86.69999694824219
aF85.44999694824219
aF84.44999694824219
aF83.3499984741211
aF82.3499984741211
aF81.44999694824219
aF80.44999694824219
aF79.3499984741211
aF78.3499984741211
aF77.3499984741211
aF76.44999694824219
aF75.3499984741211
aF74.3499984741211
aF73.3499984741211
aF72.44999694824219
aF71.3499984741211
aF70.44999694824219
aF69.44999694824219
aF68.44999694824219
aF67.19999694824219
aF66.19999694824219
aF65.30000305175781
aF64.30000305175781
aF63.20000076293945
aF62.29999923706055
aF61.29999923706055
aF60.29999923706055
aF59.29999923706055
aF58.20000076293945
aF57.29999923706055
aF56.29999923706055
aF55.29999923706055
aF54.20000076293945
aF53.20000076293945
aF52.29999923706055
aF51.29999923706055
aF50.29999923706055
aF49.20000076293945
aF48.849998474121094
aF48.150001525878906
aF47.150001525878906
aF46.04999923706055
aF45.150001525878906
aF44.150001525878906
aF43.150001525878906
aF42.04999923706055
aF41.04999923706055
aF40.150001525878906
aF39.150001525878906
aF38.04999923706055
aF37.04999923706055
aF36.04999923706055
aF35.150001525878906
aF34.04999923706055
aF33.04999923706055
aF32.04999923706055
aF31.049999237060547
aF30.049999237060547
aF29.049999237060547
aF28.149999618530273
aF27.0
aF26.0
aF25.0
aF24.0
aF23.0
aF21.899999618530273
aF20.899999618530273
aF20.0
aF19.0
aF17.899999618530273
aF16.899999618530273
aF15.899999618530273
aF15.0
aF14.0
aF12.899999618530273
aF11.899999618530273
aF10.899999618530273
aF10.0
aF8.899999618530273
aF7.900000095367432
aF6.900000095367432
aF5.900000095367432
aF5.0
aF3.6500000953674316
aF2.6500000953674316
aF1.649999976158142
aF0.6499999761581421
aF-0.3499999940395355
aF-1.350000023841858
aF-2.25
aF-3.25
aF-4.25
aF-5.25
aF-6.25
aF-7.25
aF-8.350000381469727
aF-9.25
aF-10.25
aF-11.25
aF-12.350000381469727
aF-13.350000381469727
aF-14.600000381469727
aF-15.600000381469727
aF-16.600000381469727
aF-17.600000381469727
aF-18.5
aF-19.5
aF-20.5
aF-21.5
aF-22.5
aF-23.5
aF-24.5
aF-25.600000381469727
aF-26.5
aF-27.5
aF-28.5
aF-29.600000381469727
aF-30.600000381469727
aF-31.5
aF-32.5
aF-33.349998474121094
aF-33.75
aF-34.75
aF-35.75
aF-36.849998474121094
aF-37.849998474121094
aF-38.75
aF-39.75
aF-40.849998474121094
aF-41.849998474121094
aF-42.849998474121094
aF-43.75
aF-44.849998474121094
aF99.9000015258789
aF98.9000015258789
aF97.9000015258789
aF96.80000305175781
aF95.80000305175781
aF94.9000015258789
aF93.9000015258789
aF92.9000015258789
aF91.80000305175781
aF90.80000305175781
aF89.9000015258789
aF88.9000015258789
aF87.80000305175781
aF86.80000305175781
aF85.9000015258789
aF84.6500015258789
aF83.55000305175781
aF82.55000305175781
aF81.55000305175781
aF80.6500015258789
aF79.55000305175781
aF78.55000305175781
aF77.55000305175781
aF76.55000305175781
aF75.6500015258789
aF74.55000305175781
aF73.55000305175781
aF72.55000305175781
aF71.55000305175781
aF70.6500015258789
aF69.6500015258789
aF68.6500015258789
aF67.30000305175781
aF66.30000305175781
aF65.4000015258789
aF64.4000015258789
aF63.400001525878906
aF62.400001525878906
aF61.400001525878906
aF60.400001525878906
aF59.400001525878906
aF58.29999923706055
aF57.400001525878906
aF56.400001525878906
aF55.400001525878906
aF54.29999923706055
aF53.29999923706055
aF52.29999923706055
aF51.400001525878906
aF50.29999923706055
aF49.29999923706055
aF48.849998474121094
aF48.150001525878906
aF47.04999923706055
aF46.04999923706055
aF45.04999923706055
aF44.04999923706055
aF43.150001525878906
aF42.04999923706055
aF41.04999923706055
aF40.150001525878906
aF39.150001525878906
aF38.150001525878906
aF37.150001525878906
aF36.150001525878906
aF35.150001525878906
aF34.04999923706055
aF33.150001525878906
aF32.150001525878906
aF31.149999618530273
aF30.049999237060547
aF29.049999237060547
aF28.149999618530273
aF26.899999618530273
aF25.799999237060547
aF24.799999237060547
aF23.899999618530273
aF22.899999618530273
aF21.799999237060547
aF20.799999237060547
aF19.899999618530273
aF18.899999618530273
aF17.899999618530273
aF16.799999237060547
aF15.800000190734863
aF14.800000190734863
aF13.899999618530273
aF12.800000190734863
aF11.800000190734863
aF10.800000190734863
aF9.800000190734863
aF8.899999618530273
aF7.900000095367432
aF6.900000095367432
aF5.900000095367432
aF4.550000190734863
aF3.549999952316284
aF2.549999952316284
aF1.5499999523162842
aF0.6499999761581421
aF-0.44999998807907104
aF-1.350000023841858
aF-2.3499999046325684
aF-3.3499999046325684
aF-4.349999904632568
aF-5.349999904632568
aF-6.349999904632568
aF-7.349999904632568
aF-8.449999809265137
aF-9.350000381469727
aF-10.350000381469727
aF-11.350000381469727
aF-12.449999809265137
aF-13.449999809265137
aF-14.600000381469727
aF-15.600000381469727
aF-16.700000762939453
aF-17.600000381469727
aF-18.600000381469727
aF-19.600000381469727
aF-20.600000381469727
aF-21.700000762939453
aF-22.600000381469727
aF-23.600000381469727
aF-24.600000381469727
aF-25.700000762939453
aF-26.700000762939453
aF-27.600000381469727
aF-28.600000381469727
aF-29.700000762939453
aF-30.700000762939453
aF-31.700000762939453
aF-32.599998474121094
aF-33.349998474121094
aF-33.849998474121094
aF-34.849998474121094
aF-35.849998474121094
aF-36.849998474121094
aF-37.849998474121094
aF-38.849998474121094
aF-39.849998474121094
aF-40.75
aF-41.75
aF-42.75
aF-43.75
aF-44.75
aF99.80000305175781
aF98.80000305175781
aF97.9000015258789
aF96.9000015258789
aF95.80000305175781
aF94.80000305175781
aF93.80000305175781
aF92.9000015258789
aF91.80000305175781
aF90.80000305175781
aF89.80000305175781
aF88.80000305175781
aF87.80000305175781
aF86.9000015258789
aF85.9000015258789
aF84.55000305175781
aF83.6500015258789
aF82.55000305175781
aF81.55000305175781
aF80.55000305175781
aF79.6500015258789
aF78.6500015258789
aF77.6500015258789
aF76.6500015258789
aF75.6500015258789
aF74.55000305175781
aF73.6500015258789
aF72.6500015258789
aF71.6500015258789
aF70.55000305175781
aF69.55000305175781
aF68.6500015258789
aF67.4000015258789
aF66.30000305175781
aF65.30000305175781
aF64.30000305175781
aF63.29999923706055
aF62.400001525878906
aF61.29999923706055
aF60.400001525878906
aF59.400001525878906
aF58.400001525878906
aF57.29999923706055
aF56.400001525878906
aF55.400001525878906
aF54.400001525878906
aF53.29999923706055
aF52.400001525878906
aF51.400001525878906
aF50.400001525878906
aF49.400001525878906
aF48.849998474121094
aF48.150001525878906
aF47.25
aF46.25
aF45.150001525878906
aF44.150001525878906
aF43.150001525878906
aF42.25
aF41.150001525878906
aF40.150001525878906
aF39.150001525878906
aF38.150001525878906
aF37.25
aF36.150001525878906
aF35.150001525878906
aF34.150001525878906
aF33.25
aF32.25
aF31.25
aF30.25
aF29.25
aF28.149999618530273
aF26.899999618530273
aF26.0
aF25.0
aF24.0
aF22.899999618530273
aF21.899999618530273
aF21.0
aF20.0
aF18.899999618530273
aF17.899999618530273
aF16.899999618530273
aF16.0
aF14.899999618530273
aF13.899999618530273
aF12.899999618530273
aF11.899999618530273
aF10.899999618530273
aF10.0
aF9.0
aF8.0
aF6.900000095367432
aF6.0
aF5.0
aF3.6500000953674316
aF2.75
aF1.649999976158142
aF0.6499999761581421
aF-0.3499999940395355
aF-1.350000023841858
aF-2.25
aF-3.25
aF-4.25
aF-5.25
aF-6.349999904632568
aF-7.25
aF-8.25
aF-9.25
aF-10.25
aF-11.350000381469727
aF-12.25
aF-13.25
aF-14.5
aF-15.600000381469727
aF-16.600000381469727
aF-17.600000381469727
aF-18.5
aF-19.600000381469727
aF-20.600000381469727
aF-21.600000381469727
aF-22.600000381469727
aF-23.600000381469727
aF-24.5
aF-25.5
aF-26.5
aF-27.5
aF-28.600000381469727
aF-29.5
aF-30.5
aF-31.5
aF-32.599998474121094
aF-33.349998474121094
aF-33.650001525878906
aF-34.650001525878906
aF-35.75
aF-36.75
aF-37.75
aF-38.650001525878906
aF-39.75
aF-40.75
aF-41.75
aF-42.75
aF-43.75
aF-44.75
aF99.80000305175781
aF98.9000015258789
aF97.9000015258789
aF96.80000305175781
aF95.80000305175781
aF94.80000305175781
aF93.9000015258789
aF92.80000305175781
aF91.9000015258789
aF90.9000015258789
aF89.9000015258789
aF88.9000015258789
aF87.9000015258789
aF86.9000015258789
aF85.9000015258789
aF84.55000305175781
aF83.55000305175781
aF82.55000305175781
aF81.55000305175781
aF80.55000305175781
aF79.55000305175781
aF78.6500015258789
aF77.6500015258789
aF76.55000305175781
aF75.6500015258789
aF74.6500015258789
aF73.6500015258789
aF72.55000305175781
aF71.55000305175781
aF70.6500015258789
aF69.6500015258789
aF68.55000305175781
aF67.4000015258789
aF66.4000015258789
aF65.4000015258789
aF64.4000015258789
aF63.29999923706055
aF62.29999923706055
aF61.400001525878906
aF60.400001525878906
aF59.29999923706055
aF58.29999923706055
aF57.29999923706055
aF56.400001525878906
aF55.29999923706055
aF54.29999923706055
aF53.29999923706055
aF52.29999923706055
aF51.400001525878906
aF50.400001525878906
aF49.400001525878906
aF48.849998474121094
aF48.150001525878906
aF47.25
aF46.25
aF45.25
aF44.25
aF43.150001525878906
aF42.25
aF41.25
aF40.25
aF39.150001525878906
aF38.150001525878906
aF37.25
aF36.25
aF35.150001525878906
aF34.150001525878906
aF33.150001525878906
aF32.25
aF31.149999618530273
aF30.149999618530273
aF29.149999618530273
aF28.149999618530273
aF27.0
aF26.0
aF25.0
aF24.0
aF23.0
aF21.899999618530273
aF21.0
aF20.0
aF19.0
aF17.899999618530273
aF16.899999618530273
aF15.899999618530273
aF15.0
aF14.0
aF12.899999618530273
aF11.899999618530273
aF10.899999618530273
aF10.0
aF9.0
aF7.900000095367432
aF7.0
aF6.0
aF5.0
aF3.6500000953674316
aF2.6500000953674316
aF1.649999976158142
aF0.75
aF-0.3499999940395355
aF-1.350000023841858
aF-2.3499999046325684
aF-3.3499999046325684
aF-4.349999904632568
aF-5.25
aF-6.25
aF-7.25
aF-8.25
aF-9.350000381469727
aF-10.25
aF-11.25
aF-12.25
aF-13.25
aF-14.600000381469727
aF-15.600000381469727
aF-16.5
aF-17.5
aF-18.600000381469727
aF-19.600000381469727
aF-20.600000381469727
aF-21.5
aF-22.600000381469727
aF-23.600000381469727
aF-24.600000381469727
aF-25.5
aF-26.5
aF-27.5
aF-28.5
aF-29.5
aF-30.5
aF-31.600000381469727
aF-32.5
aF-33.349998474121094
aF-33.650001525878906
aF-34.75
aF-35.75
assS'fmeasures'
p4
(dp5
I1
(lp6
F1.7587946653366089
aF1.723618745803833
aF1.6891463994979858
aF1.6553634405136108
aF1.6222561597824097
aF1.589811086654663
aF1.5580148696899414
aF1.5268545150756836
aF1.4963175058364868
aF1.4663910865783691
aF1.4370633363723755
aF1.4083219766616821
aF1.3801555633544922
aF1.3525524139404297
aF1.3255014419555664
aF1.2989914417266846
aF1.273011565208435
aF1.2475513219833374
aF1.2226003408432007
aF1.198148250579834
aF1.1741853952407837
aF1.150701642036438
aF1.1276875734329224
aF1.1051338911056519
aF1.083031177520752
aF1.0613704919815063
aF1.0401431322097778
aF1.0193402767181396
aF0.9989534616470337
aF0.9789744019508362
aF0.9593949317932129
aF0.9402070045471191
aF0.9214028716087341
aF0.9029747843742371
aF0.884915292263031
aF0.8672170042991638
aF0.8498726487159729
aF0.8328751921653748
aF0.8162177205085754
aF0.7998933792114258
aF0.7838954925537109
aF0.7682175636291504
aF0.7528532147407532
aF0.7377961874008179
aF0.7230402231216431
aF0.708579421043396
aF0.6944078207015991
aF0.680519700050354
aF0.6669092774391174
aF0.6535711288452148
aF0.6404997110366821
aF0.6276897192001343
aF0.615135908126831
aF0.6028332114219666
aF0.5907765030860901
aF0.5789610147476196
aF0.567381739616394
aF0.5560341477394104
aF0.5449134707450867
aF0.5340151786804199
aF0.5233348608016968
aF0.5128681659698486
aF0.5026108026504517
aF0.4925585985183716
aF0.4827074408531189
aF0.4730532765388489
aF0.46359220147132874
aF0.45432037115097046
aF0.4452339708805084
aF0.43632927536964417
aF0.42760270833969116
aF0.4190506339073181
aF0.41066962480545044
aF0.40245622396469116
aF0.39440712332725525
aF0.3865189850330353
aF0.3787885904312134
aF0.37121281027793884
aF0.36378857493400574
aF0.35651278495788574
aF0.34938254952430725
aF0.3423948884010315
aF0.33554700016975403
aF0.328836053609848
aF0.3222593367099762
aF0.31581413745880127
aF0.3094978630542755
aF0.3033078908920288
aF0.297241747379303
aF0.29129689931869507
aF0.28547096252441406
aF0.27976155281066895
aF0.2741663157939911
aF0.26868298649787903
aF100.0
aF100.0
aF100.0
aF98.0
aF96.04000091552734
aF94.11920166015625
aF92.23681640625
aF90.39208221435547
aF88.58423614501953
aF86.81255340576172
aF85.07630157470703
aF83.3747787475586
aF81.70728302001953
aF80.07313537597656
aF78.47167205810547
aF76.90223693847656
aF75.36419677734375
aF73.8569107055664
aF72.37976837158203
aF70.93217468261719
aF69.51353454589844
aF68.12326049804688
aF66.76079559326172
aF65.42558288574219
aF64.11707305908203
aF62.8347282409668
aF61.578033447265625
aF60.346473693847656
aF59.13954162597656
aF57.95675277709961
aF56.7976188659668
aF55.66166687011719
aF54.548431396484375
aF53.457462310791016
aF52.38831329345703
aF100.0
aF100.0
aF100.0
aF98.0
aF96.04000091552734
aF94.11920166015625
aF92.23681640625
aF90.39208221435547
aF88.58423614501953
aF86.81255340576172
aF85.07630157470703
aF83.3747787475586
aF81.70728302001953
aF80.07313537597656
aF78.47167205810547
aF76.90223693847656
aF75.36419677734375
aF73.8569107055664
aF72.37976837158203
aF70.93217468261719
aF69.51353454589844
aF68.12326049804688
aF66.76079559326172
aF65.42558288574219
aF64.11707305908203
aF62.8347282409668
aF61.578033447265625
aF60.346473693847656
aF59.13954162597656
aF57.95675277709961
aF56.7976188659668
aF55.66166687011719
aF54.548431396484375
aF53.457462310791016
aF52.38831329345703
aF51.34054946899414
aF50.31373596191406
aF49.30746078491211
aF48.321311950683594
aF47.35488510131836
aF46.40778732299805
aF45.47963333129883
aF44.57004165649414
aF43.67863845825195
aF42.8050651550293
aF41.94896697998047
aF41.1099853515625
aF100.0
aF100.0
aF100.0
aF98.0
aF96.04000091552734
aF94.11920166015625
aF92.23681640625
aF90.39208221435547
aF88.58423614501953
aF86.81255340576172
aF85.07630157470703
aF83.3747787475586
aF81.70728302001953
aF80.07313537597656
aF78.47167205810547
aF76.90223693847656
aF75.36419677734375
aF73.8569107055664
aF72.37976837158203
aF70.93217468261719
aF69.51353454589844
aF68.12326049804688
aF66.76079559326172
aF65.42558288574219
aF64.11707305908203
aF62.8347282409668
aF61.578033447265625
aF60.346473693847656
aF59.13954162597656
aF57.95675277709961
aF56.7976188659668
aF55.66166687011719
aF54.548431396484375
aF53.457462310791016
aF52.38831329345703
aF51.34054946899414
aF50.31373596191406
aF100.0
aF100.0
aF100.0
aF98.0
aF96.04000091552734
aF94.11920166015625
aF92.23681640625
aF90.39208221435547
aF88.58423614501953
aF86.81255340576172
aF85.07630157470703
aF83.3747787475586
aF81.70728302001953
aF80.07313537597656
aF78.47167205810547
aF76.90223693847656
aF75.36419677734375
aF73.8569107055664
aF72.37976837158203
aF70.93217468261719
aF69.51353454589844
aF68.12326049804688
aF66.76079559326172
aF65.42558288574219
aF64.11707305908203
aF62.8347282409668
aF61.578033447265625
aF60.346473693847656
aF59.13954162597656
aF57.95675277709961
aF56.7976188659668
aF55.66166687011719
aF54.548431396484375
aF53.457462310791016
aF52.38831329345703
aF51.34054946899414
aF50.31373596191406
aF49.30746078491211
aF48.321311950683594
aF47.35488510131836
aF46.40778732299805
aF45.47963333129883
aF44.57004165649414
aF43.67863845825195
aF42.8050651550293
aF41.94896697998047
aF41.1099853515625
aF40.287784576416016
aF39.48202896118164
aF38.69239044189453
aF37.918540954589844
aF37.16017150878906
aF36.416969299316406
aF35.688629150390625
aF34.974857330322266
aF34.275360107421875
aF100.0
aF100.0
aF100.0
aF98.0
aF96.04000091552734
aF94.11920166015625
aF92.23681640625
aF90.39208221435547
aF88.58423614501953
aF86.81255340576172
aF85.07630157470703
aF83.3747787475586
aF81.70728302001953
aF80.07313537597656
aF78.47167205810547
aF76.90223693847656
aF75.36419677734375
aF73.8569107055664
aF72.37976837158203
aF70.93217468261719
aF69.51353454589844
aF68.12326049804688
aF66.76079559326172
aF65.42558288574219
aF64.11707305908203
aF62.8347282409668
aF61.578033447265625
aF60.346473693847656
aF59.13954162597656
aF57.95675277709961
aF56.7976188659668
aF55.66166687011719
aF54.548431396484375
aF53.457462310791016
aF52.38831329345703
aF51.34054946899414
aF50.31373596191406
aF100.0
aF100.0
aF100.0
aF98.0
aF96.04000091552734
aF94.11920166015625
aF92.23681640625
aF90.39208221435547
aF88.58423614501953
aF86.81255340576172
aF85.07630157470703
aF83.3747787475586
aF81.70728302001953
aF80.07313537597656
aF78.47167205810547
aF76.90223693847656
aF75.36419677734375
aF73.8569107055664
aF72.37976837158203
aF70.93217468261719
aF69.51353454589844
aF68.12326049804688
aF66.76079559326172
aF65.42558288574219
aF64.11707305908203
aF62.8347282409668
aF61.578033447265625
aF60.346473693847656
aF59.13954162597656
aF57.95675277709961
aF56.7976188659668
aF55.66166687011719
aF54.548431396484375
aF53.457462310791016
aF52.38831329345703
aF51.34054946899414
aF50.31373596191406
aF49.30746078491211
aF48.321311950683594
aF47.35488510131836
aF46.40778732299805
aF45.47963333129883
aF44.57004165649414
aF43.67863845825195
aF42.8050651550293
aF100.0
aF100.0
aF100.0
aF98.0
aF96.04000091552734
aF94.11920166015625
aF92.23681640625
aF90.39208221435547
aF88.58423614501953
aF86.81255340576172
aF85.07630157470703
aF83.3747787475586
aF81.70728302001953
aF80.07313537597656
aF78.47167205810547
aF76.90223693847656
aF75.36419677734375
aF73.8569107055664
aF72.37976837158203
aF70.93217468261719
aF69.51353454589844
aF68.12326049804688
aF66.76079559326172
aF65.42558288574219
aF64.11707305908203
aF62.8347282409668
aF61.578033447265625
aF60.346473693847656
aF59.13954162597656
aF57.95675277709961
aF56.7976188659668
aF55.66166687011719
aF54.548431396484375
aF53.457462310791016
aF52.38831329345703
aF51.34054946899414
aF50.31373596191406
aF49.30746078491211
aF100.0
aF100.0
aF100.0
aF98.0
aF96.04000091552734
aF94.11920166015625
aF92.23681640625
aF90.39208221435547
aF88.58423614501953
aF86.81255340576172
aF85.07630157470703
aF83.3747787475586
aF81.70728302001953
aF80.07313537597656
aF78.47167205810547
aF76.90223693847656
aF75.36419677734375
aF73.8569107055664
aF72.37976837158203
aF70.93217468261719
aF69.51353454589844
aF68.12326049804688
aF66.76079559326172
aF65.42558288574219
aF64.11707305908203
aF62.8347282409668
aF61.578033447265625
aF100.0
aF100.0
aF100.0
aF98.0
aF96.04000091552734
aF94.11920166015625
aF92.23681640625
aF90.39208221435547
aF88.58423614501953
aF86.81255340576172
aF85.07630157470703
aF83.3747787475586
aF81.70728302001953
aF80.07313537597656
aF78.47167205810547
aF76.90223693847656
aF75.36419677734375
aF73.8569107055664
aF72.37976837158203
aF70.93217468261719
aF69.51353454589844
aF68.12326049804688
aF66.76079559326172
aF65.42558288574219
aF64.11707305908203
aF62.8347282409668
aF61.578033447265625
aF60.346473693847656
aF59.13954162597656
aF57.95675277709961
aF56.7976188659668
aF55.66166687011719
aF54.548431396484375
aF53.457462310791016
aF52.38831329345703
aF51.34054946899414
aF50.31373596191406
aF100.0
aF100.0
aF100.0
aF98.0
aF96.04000091552734
aF94.11920166015625
aF92.23681640625
aF90.39208221435547
aF88.58423614501953
aF86.81255340576172
aF85.07630157470703
aF83.3747787475586
aF81.70728302001953
aF80.07313537597656
aF78.47167205810547
aF76.90223693847656
aF75.36419677734375
aF73.8569107055664
aF72.37976837158203
aF70.93217468261719
aF69.51353454589844
aF68.12326049804688
aF66.76079559326172
aF65.42558288574219
aF64.11707305908203
aF62.8347282409668
aF61.578033447265625
aF60.346473693847656
aF59.13954162597656
aF57.95675277709961
aF56.7976188659668
aF55.66166687011719
aF54.548431396484375
aF53.457462310791016
aF52.38831329345703
aF51.34054946899414
aF50.31373596191406
aF49.30746078491211
aF48.321311950683594
aF47.35488510131836
aF46.40778732299805
aF45.47963333129883
aF44.57004165649414
aF43.67863845825195
aF100.0
aF100.0
aF100.0
aF98.0
aF96.04000091552734
aF94.11920166015625
aF92.23681640625
aF90.39208221435547
aF88.58423614501953
aF86.81255340576172
aF85.07630157470703
aF83.3747787475586
aF81.70728302001953
aF80.07313537597656
aF78.47167205810547
aF76.90223693847656
aF75.36419677734375
aF73.8569107055664
aF72.37976837158203
aF70.93217468261719
aF69.51353454589844
aF68.12326049804688
aF66.76079559326172
aF65.42558288574219
aF64.11707305908203
aF62.8347282409668
aF61.578033447265625
aF60.346473693847656
aF59.13954162597656
aF57.95675277709961
aF56.7976188659668
aF55.66166687011719
aF54.548431396484375
aF53.457462310791016
aF52.38831329345703
aF51.34054946899414
aF50.31373596191406
aF49.30746078491211
aF100.0
aF100.0
aF100.0
aF98.0
aF96.04000091552734
aF94.11920166015625
aF92.23681640625
aF90.39208221435547
aF88.58423614501953
aF86.81255340576172
aF85.07630157470703
aF83.3747787475586
aF81.70728302001953
aF80.07313537597656
aF78.47167205810547
aF76.90223693847656
aF75.36419677734375
aF73.8569107055664
aF72.37976837158203
aF70.93217468261719
aF69.51353454589844
aF68.12326049804688
aF66.76079559326172
aF65.42558288574219
aF64.11707305908203
aF62.8347282409668
aF61.578033447265625
aF100.0
aF100.0
aF100.0
aF98.0
aF96.04000091552734
aF94.11920166015625
aF92.23681640625
aF90.39208221435547
aF88.58423614501953
aF86.81255340576172
aF85.07630157470703
aF83.3747787475586
aF81.70728302001953
aF80.07313537597656
aF78.47167205810547
aF76.90223693847656
aF75.36419677734375
aF73.8569107055664
aF72.37976837158203
aF70.93217468261719
aF69.51353454589844
aF68.12326049804688
aF66.76079559326172
aF65.42558288574219
aF64.11707305908203
aF62.8347282409668
aF61.578033447265625
aF60.346473693847656
aF59.13954162597656
aF57.95675277709961
aF56.7976188659668
aF55.66166687011719
aF54.548431396484375
aF53.457462310791016
aF52.38831329345703
aF51.34054946899414
aF50.31373596191406
aF100.0
aF100.0
aF100.0
aF98.0
aF96.04000091552734
aF94.11920166015625
aF92.23681640625
aF90.39208221435547
aF88.58423614501953
aF86.81255340576172
aF85.07630157470703
aF83.3747787475586
aF81.70728302001953
aF80.07313537597656
aF78.47167205810547
aF76.90223693847656
aF75.36419677734375
aF73.8569107055664
aF72.37976837158203
aF70.93217468261719
aF69.51353454589844
aF68.12326049804688
aF66.76079559326172
aF65.42558288574219
aF64.11707305908203
aF62.8347282409668
aF61.578033447265625
aF60.346473693847656
aF59.13954162597656
aF57.95675277709961
aF56.7976188659668
aF55.66166687011719
aF54.548431396484375
aF53.457462310791016
aF52.38831329345703
aF51.34054946899414
aF50.31373596191406
aF49.30746078491211
aF48.321311950683594
aF47.35488510131836
aF46.40778732299805
aF45.47963333129883
aF44.57004165649414
aF43.67863845825195
aF100.0
aF100.0
aF100.0
aF98.0
aF96.04000091552734
aF94.11920166015625
aF92.23681640625
aF90.39208221435547
aF88.58423614501953
aF86.81255340576172
aF85.07630157470703
aF83.3747787475586
aF81.70728302001953
aF80.07313537597656
aF78.47167205810547
aF76.90223693847656
aF75.36419677734375
aF73.8569107055664
aF72.37976837158203
aF70.93217468261719
aF69.51353454589844
aF68.12326049804688
aF66.76079559326172
aF65.42558288574219
aF64.11707305908203
aF62.8347282409668
aF61.578033447265625
aF60.346473693847656
aF59.13954162597656
aF57.95675277709961
aF56.7976188659668
aF55.66166687011719
aF54.548431396484375
aF53.457462310791016
aF52.38831329345703
aF51.34054946899414
aF50.31373596191406
aF49.30746078491211
aF100.0
aF100.0
aF100.0
aF98.0
aF96.04000091552734
aF94.11920166015625
aF92.23681640625
aF90.39208221435547
aF88.58423614501953
aF86.81255340576172
aF85.07630157470703
aF83.3747787475586
aF81.70728302001953
aF80.07313537597656
aF78.47167205810547
aF76.90223693847656
aF75.36419677734375
aF73.8569107055664
aF72.37976837158203
aF70.93217468261719
aF69.51353454589844
aF68.12326049804688
aF66.76079559326172
aF65.42558288574219
aF64.11707305908203
aF62.8347282409668
aF61.578033447265625
aF100.0
aF100.0
aF100.0
aF98.0
aF96.04000091552734
aF94.11920166015625
aF92.23681640625
aF90.39208221435547
aF88.58423614501953
aF86.81255340576172
aF85.07630157470703
aF83.3747787475586
aF81.70728302001953
aF80.07313537597656
aF78.47167205810547
aF76.90223693847656
aF75.36419677734375
aF73.8569107055664
aF72.37976837158203
aF70.93217468261719
aF69.51353454589844
aF68.12326049804688
aF66.76079559326172
aF65.42558288574219
aF64.11707305908203
aF62.8347282409668
aF61.578033447265625
aF60.346473693847656
aF59.13954162597656
aF57.95675277709961
aF56.7976188659668
aF55.66166687011719
aF54.548431396484375
aF53.457462310791016
aF52.38831329345703
aF51.34054946899414
aF50.31373596191406
aF100.0
aF100.0
aF100.0
aF98.0
aF96.04000091552734
aF94.11920166015625
aF92.23681640625
aF90.39208221435547
aF88.58423614501953
aF86.81255340576172
aF85.07630157470703
aF83.3747787475586
aF81.70728302001953
aF80.07313537597656
aF78.47167205810547
aF76.90223693847656
aF75.36419677734375
aF73.8569107055664
aF72.37976837158203
aF70.93217468261719
aF69.51353454589844
aF68.12326049804688
aF66.76079559326172
aF65.42558288574219
aF64.11707305908203
aF62.8347282409668
aF61.578033447265625
aF60.346473693847656
aF59.13954162597656
aF57.95675277709961
aF56.7976188659668
aF55.66166687011719
aF54.548431396484375
aF53.457462310791016
aF52.38831329345703
aF51.34054946899414
aF50.31373596191406
aF49.30746078491211
aF48.321311950683594
aF47.35488510131836
aF46.40778732299805
aF45.47963333129883
aF44.57004165649414
aF43.67863845825195
aF42.8050651550293
aF100.0
aF100.0
aF100.0
aF98.0
aF96.04000091552734
aF94.11920166015625
aF92.23681640625
aF90.39208221435547
aF88.58423614501953
aF86.81255340576172
aF85.07630157470703
aF83.3747787475586
aF81.70728302001953
aF80.07313537597656
aF78.47167205810547
aF76.90223693847656
aF75.36419677734375
aF73.8569107055664
aF72.37976837158203
aF70.93217468261719
aF69.51353454589844
aF68.12326049804688
aF66.76079559326172
aF65.42558288574219
aF64.11707305908203
aF62.8347282409668
aF61.578033447265625
aF60.346473693847656
aF59.13954162597656
aF57.95675277709961
aF56.7976188659668
aF55.66166687011719
aF54.548431396484375
aF53.457462310791016
aF52.38831329345703
aF51.34054946899414
aF50.31373596191406
aF100.0
aF100.0
aF100.0
aF98.0
aF96.04000091552734
aF94.11920166015625
aF92.23681640625
aF90.39208221435547
aF88.58423614501953
aF86.81255340576172
aF85.07630157470703
aF83.3747787475586
aF81.70728302001953
aF80.07313537597656
aF78.47167205810547
aF76.90223693847656
aF75.36419677734375
aF73.8569107055664
aF72.37976837158203
aF70.93217468261719
aF69.51353454589844
aF68.12326049804688
aF66.76079559326172
aF65.42558288574219
aF64.11707305908203
aF62.8347282409668
aF61.578033447265625
aF60.346473693847656
aF100.0
aF100.0
aF100.0
aF98.0
aF96.04000091552734
aF94.11920166015625
aF92.23681640625
aF90.39208221435547
aF88.58423614501953
aF86.81255340576172
aF85.07630157470703
aF83.3747787475586
aF81.70728302001953
aF80.07313537597656
aF78.47167205810547
aF76.90223693847656
aF75.36419677734375
aF73.8569107055664
aF72.37976837158203
aF70.93217468261719
aF69.51353454589844
aF68.12326049804688
aF66.76079559326172
aF65.42558288574219
aF64.11707305908203
aF62.8347282409668
aF61.578033447265625
aF60.346473693847656
aF59.13954162597656
aF57.95675277709961
aF56.7976188659668
aF55.66166687011719
aF54.548431396484375
aF53.457462310791016
aF52.38831329345703
aF51.34054946899414
aF100.0
aF100.0
aF100.0
aF98.0
aF96.04000091552734
aF94.11920166015625
aF92.23681640625
aF90.39208221435547
aF88.58423614501953
aF86.81255340576172
aF85.07630157470703
aF83.3747787475586
aF81.70728302001953
aF80.07313537597656
aF78.47167205810547
aF76.90223693847656
aF75.36419677734375
aF73.8569107055664
aF72.37976837158203
aF70.93217468261719
aF69.51353454589844
aF68.12326049804688
aF66.76079559326172
aF65.42558288574219
aF64.11707305908203
aF62.8347282409668
aF61.578033447265625
aF60.346473693847656
aF59.13954162597656
aF57.95675277709961
aF56.7976188659668
aF55.66166687011719
aF54.548431396484375
aF53.457462310791016
aF52.38831329345703
aF51.34054946899414
aF50.31373596191406
aF49.30746078491211
aF48.321311950683594
aF47.35488510131836
aF46.40778732299805
aF45.47963333129883
aF44.57004165649414
aF43.67863845825195
aF42.8050651550293
aF100.0
aF100.0
aF100.0
aF98.0
aF96.04000091552734
aF94.11920166015625
aF92.23681640625
aF90.39208221435547
aF88.58423614501953
aF86.81255340576172
aF85.07630157470703
aF83.3747787475586
aF81.70728302001953
aF80.07313537597656
aF78.47167205810547
aF76.90223693847656
aF75.36419677734375
aF73.8569107055664
aF72.37976837158203
aF70.93217468261719
aF69.51353454589844
aF68.12326049804688
aF66.76079559326172
aF65.42558288574219
aF64.11707305908203
aF62.8347282409668
aF61.578033447265625
aF60.346473693847656
aF59.13954162597656
aF57.95675277709961
aF56.7976188659668
aF55.66166687011719
aF54.548431396484375
aF53.457462310791016
aF52.38831329345703
aF51.34054946899414
aF50.31373596191406
aF100.0
aF100.0
aF100.0
aF98.0
aF96.04000091552734
aF94.11920166015625
aF92.23681640625
aF90.39208221435547
aF88.58423614501953
aF86.81255340576172
aF85.07630157470703
aF83.3747787475586
aF81.70728302001953
aF80.07313537597656
aF78.47167205810547
aF76.90223693847656
aF75.36419677734375
aF73.8569107055664
aF72.37976837158203
aF70.93217468261719
aF69.51353454589844
aF68.12326049804688
aF66.76079559326172
aF65.42558288574219
aF64.11707305908203
aF62.8347282409668
aF61.578033447265625
aF60.346473693847656
aF100.0
aF100.0
aF100.0
aF98.0
aF96.04000091552734
aF94.11920166015625
aF92.23681640625
aF90.39208221435547
aF88.58423614501953
aF86.81255340576172
aF85.07630157470703
aF83.3747787475586
aF81.70728302001953
aF80.07313537597656
aF78.47167205810547
aF76.90223693847656
aF75.36419677734375
aF73.8569107055664
aF72.37976837158203
aF70.93217468261719
aF69.51353454589844
aF68.12326049804688
aF66.76079559326172
aF65.42558288574219
aF64.11707305908203
aF62.8347282409668
aF61.578033447265625
aF60.346473693847656
aF59.13954162597656
aF57.95675277709961
aF56.7976188659668
aF55.66166687011719
aF54.548431396484375
aF53.457462310791016
aF52.38831329345703
aF51.34054946899414
aF100.0
aF100.0
aF100.0
aF98.0
aF96.04000091552734
aF94.11920166015625
aF92.23681640625
aF90.39208221435547
aF88.58423614501953
aF86.81255340576172
aF85.07630157470703
aF83.3747787475586
aF81.70728302001953
aF80.07313537597656
aF78.47167205810547
aF76.90223693847656
aF75.36419677734375
aF73.8569107055664
aF72.37976837158203
aF70.93217468261719
aF69.51353454589844
aF68.12326049804688
aF66.76079559326172
aF65.42558288574219
aF64.11707305908203
aF62.8347282409668
aF61.578033447265625
aF60.346473693847656
aF59.13954162597656
aF57.95675277709961
aF56.7976188659668
aF55.66166687011719
aF54.548431396484375
aF53.457462310791016
aF52.38831329345703
aF51.34054946899414
aF50.31373596191406
aF49.30746078491211
aF48.321311950683594
aF47.35488510131836
aF46.40778732299805
aF45.47963333129883
aF44.57004165649414
aF43.67863845825195
aF42.8050651550293
aF100.0
aF100.0
aF100.0
aF98.0
aF96.04000091552734
aF94.11920166015625
aF92.23681640625
aF90.39208221435547
aF88.58423614501953
aF86.81255340576172
aF85.07630157470703
aF83.3747787475586
aF81.70728302001953
aF80.07313537597656
aF78.47167205810547
aF76.90223693847656
aF75.36419677734375
aF73.8569107055664
aF72.37976837158203
aF70.93217468261719
aF69.51353454589844
aF68.12326049804688
aF66.76079559326172
aF65.42558288574219
aF64.11707305908203
aF62.8347282409668
aF61.578033447265625
aF60.346473693847656
aF59.13954162597656
aF57.95675277709961
aF56.7976188659668
aF55.66166687011719
aF54.548431396484375
aF53.457462310791016
aF52.38831329345703
aF51.34054946899414
aF50.31373596191406
aF100.0
aF100.0
aF100.0
aF98.0
aF96.04000091552734
aF94.11920166015625
aF92.23681640625
aF90.39208221435547
aF88.58423614501953
aF86.81255340576172
aF85.07630157470703
aF83.3747787475586
aF81.70728302001953
aF80.07313537597656
aF78.47167205810547
aF76.90223693847656
aF75.36419677734375
aF73.8569107055664
aF72.37976837158203
aF70.93217468261719
aF69.51353454589844
aF68.12326049804688
aF66.76079559326172
aF65.42558288574219
aF64.11707305908203
aF62.8347282409668
aF61.578033447265625
aF100.0
aF100.0
aF100.0
aF98.0
aF96.04000091552734
aF94.11920166015625
aF92.23681640625
aF90.39208221435547
aF88.58423614501953
aF86.81255340576172
aF85.07630157470703
aF83.3747787475586
aF81.70728302001953
aF80.07313537597656
aF78.47167205810547
aF76.90223693847656
aF75.36419677734375
aF73.8569107055664
aF72.37976837158203
aF70.93217468261719
aF69.51353454589844
aF68.12326049804688
aF66.76079559326172
aF65.42558288574219
aF64.11707305908203
aF62.8347282409668
aF61.578033447265625
aF60.346473693847656
aF59.13954162597656
aF57.95675277709961
aF56.7976188659668
aF55.66166687011719
aF54.548431396484375
aF53.457462310791016
aF52.38831329345703
aF51.34054946899414
aF50.31373596191406
aF100.0
aF100.0
aF100.0
aF98.0
aF96.04000091552734
aF94.11920166015625
aF92.23681640625
aF90.39208221435547
aF88.58423614501953
aF86.81255340576172
aF85.07630157470703
aF83.3747787475586
aF81.70728302001953
aF80.07313537597656
aF78.47167205810547
aF76.90223693847656
aF75.36419677734375
aF73.8569107055664
aF72.37976837158203
aF70.93217468261719
aF69.51353454589844
aF68.12326049804688
aF66.76079559326172
aF65.42558288574219
aF64.11707305908203
aF62.8347282409668
aF61.578033447265625
aF60.346473693847656
aF59.13954162597656
aF57.95675277709961
aF56.7976188659668
aF55.66166687011719
aF54.548431396484375
aF53.457462310791016
aF52.38831329345703
aF51.34054946899414
aF50.31373596191406
aF49.30746078491211
aF48.321311950683594
aF47.35488510131836
aF46.40778732299805
aF45.47963333129883
aF44.57004165649414
aF43.67863845825195
aF100.0
aF100.0
aF100.0
aF98.0
aF96.04000091552734
aF94.11920166015625
aF92.23681640625
aF90.39208221435547
aF88.58423614501953
aF86.81255340576172
aF85.07630157470703
aF83.3747787475586
aF81.70728302001953
aF80.07313537597656
aF78.47167205810547
aF76.90223693847656
aF75.36419677734375
aF73.8569107055664
aF72.37976837158203
aF70.93217468261719
aF69.51353454589844
aF68.12326049804688
aF66.76079559326172
aF65.42558288574219
aF64.11707305908203
aF62.8347282409668
aF61.578033447265625
aF60.346473693847656
aF59.13954162597656
aF57.95675277709961
aF56.7976188659668
aF55.66166687011719
aF54.548431396484375
aF53.457462310791016
aF52.38831329345703
aF51.34054946899414
aF50.31373596191406
aF49.30746078491211
aF100.0
aF100.0
aF100.0
aF98.0
aF96.04000091552734
aF94.11920166015625
aF92.23681640625
aF90.39208221435547
aF88.58423614501953
aF86.81255340576172
aF85.07630157470703
aF83.3747787475586
aF81.70728302001953
aF80.07313537597656
aF78.47167205810547
aF76.90223693847656
aF75.36419677734375
aF73.8569107055664
aF72.37976837158203
aF70.93217468261719
aF69.51353454589844
aF68.12326049804688
aF66.76079559326172
aF65.42558288574219
aF64.11707305908203
aF62.8347282409668
aF61.578033447265625
aF100.0
aF100.0
aF100.0
aF98.0
aF96.04000091552734
aF94.11920166015625
aF92.23681640625
aF90.39208221435547
aF88.58423614501953
aF86.81255340576172
aF85.07630157470703
aF83.3747787475586
aF81.70728302001953
aF80.07313537597656
aF78.47167205810547
aF76.90223693847656
aF75.36419677734375
aF73.8569107055664
aF72.37976837158203
aF70.93217468261719
aF69.51353454589844
aF68.12326049804688
aF66.76079559326172
aF65.42558288574219
aF64.11707305908203
aF62.8347282409668
aF61.578033447265625
aF60.346473693847656
aF59.13954162597656
aF57.95675277709961
aF56.7976188659668
aF55.66166687011719
aF54.548431396484375
aF53.457462310791016
aF52.38831329345703
aF51.34054946899414
aF50.31373596191406
aF100.0
aF100.0
aF100.0
aF98.0
aF96.04000091552734
aF94.11920166015625
aF92.23681640625
aF90.39208221435547
aF88.58423614501953
aF86.81255340576172
aF85.07630157470703
aF83.3747787475586
aF81.70728302001953
aF80.07313537597656
aF78.47167205810547
aF76.90223693847656
aF75.36419677734375
aF73.8569107055664
aF72.37976837158203
aF70.93217468261719
aF69.51353454589844
aF68.12326049804688
aF66.76079559326172
aF65.42558288574219
aF64.11707305908203
aF62.8347282409668
aF61.578033447265625
aF60.346473693847656
aF59.13954162597656
aF57.95675277709961
aF56.7976188659668
aF55.66166687011719
aF54.548431396484375
aF53.457462310791016
aF52.38831329345703
aF51.34054946899414
aF50.31373596191406
aF49.30746078491211
aF48.321311950683594
aF47.35488510131836
aF46.40778732299805
aF45.47963333129883
aF44.57004165649414
aF43.67863845825195
aF100.0
aF100.0
aF100.0
aF98.0
aF96.04000091552734
aF94.11920166015625
aF92.23681640625
aF90.39208221435547
aF88.58423614501953
aF86.81255340576172
aF85.07630157470703
aF83.3747787475586
aF81.70728302001953
aF80.07313537597656
aF78.47167205810547
aF76.90223693847656
aF75.36419677734375
aF73.8569107055664
aF72.37976837158203
aF70.93217468261719
aF69.51353454589844
aF68.12326049804688
aF66.76079559326172
aF65.42558288574219
aF64.11707305908203
aF62.8347282409668
aF61.578033447265625
aF60.346473693847656
aF59.13954162597656
aF57.95675277709961
aF56.7976188659668
aF55.66166687011719
aF54.548431396484375
aF53.457462310791016
aF52.38831329345703
aF51.34054946899414
aF50.31373596191406
aF49.30746078491211
aF100.0
aF100.0
aF100.0
aF98.0
aF96.04000091552734
aF94.11920166015625
aF92.23681640625
aF90.39208221435547
aF88.58423614501953
aF86.81255340576172
aF85.07630157470703
aF83.3747787475586
aF81.70728302001953
aF80.07313537597656
aF78.47167205810547
aF76.90223693847656
aF75.36419677734375
aF73.8569107055664
aF72.37976837158203
aF70.93217468261719
aF69.51353454589844
aF68.12326049804688
aF66.76079559326172
aF65.42558288574219
aF64.11707305908203
aF62.8347282409668
aF61.578033447265625
aF60.346473693847656
aF100.0
aF100.0
aF100.0
aF98.0
aF96.04000091552734
aF94.11920166015625
aF92.23681640625
aF90.39208221435547
aF88.58423614501953
aF86.81255340576172
aF85.07630157470703
aF83.3747787475586
aF81.70728302001953
aF80.07313537597656
aF78.47167205810547
aF76.90223693847656
aF75.36419677734375
aF73.8569107055664
aF72.37976837158203
aF70.93217468261719
aF69.51353454589844
aF68.12326049804688
aF66.76079559326172
aF65.42558288574219
aF64.11707305908203
aF62.8347282409668
aF61.578033447265625
aF60.346473693847656
aF59.13954162597656
aF57.95675277709961
aF56.7976188659668
aF55.66166687011719
aF54.548431396484375
aF53.457462310791016
aF52.38831329345703
aF51.34054946899414
aF100.0
aF100.0
aF100.0
aF98.0
aF96.04000091552734
aF94.11920166015625
aF92.23681640625
aF90.39208221435547
aF88.58423614501953
aF86.81255340576172
aF85.07630157470703
aF83.3747787475586
aF81.70728302001953
aF80.07313537597656
aF78.47167205810547
aF76.90223693847656
aF75.36419677734375
aF73.8569107055664
aF72.37976837158203
aF70.93217468261719
aF69.51353454589844
aF68.12326049804688
aF66.76079559326172
aF65.42558288574219
aF64.11707305908203
aF62.8347282409668
aF61.578033447265625
aF60.346473693847656
aF59.13954162597656
aF57.95675277709961
aF56.7976188659668
aF55.66166687011719
aF54.548431396484375
aF53.457462310791016
aF52.38831329345703
aF51.34054946899414
aF50.31373596191406
aF49.30746078491211
aF48.321311950683594
aF47.35488510131836
aF46.40778732299805
aF45.47963333129883
aF44.57004165649414
aF43.67863845825195
aF42.8050651550293
aF100.0
aF100.0
aF100.0
aF98.0
aF96.04000091552734
aF94.11920166015625
aF92.23681640625
aF90.39208221435547
aF88.58423614501953
aF86.81255340576172
aF85.07630157470703
aF83.3747787475586
aF81.70728302001953
aF80.07313537597656
aF78.47167205810547
aF76.90223693847656
aF75.36419677734375
aF73.8569107055664
aF72.37976837158203
aF70.93217468261719
aF69.51353454589844
aF68.12326049804688
aF66.76079559326172
aF65.42558288574219
aF64.11707305908203
aF62.8347282409668
aF61.578033447265625
aF60.346473693847656
aF59.13954162597656
aF57.95675277709961
aF56.7976188659668
aF55.66166687011719
aF54.548431396484375
aF53.457462310791016
aF52.38831329345703
aF51.34054946899414
aF50.31373596191406
aF100.0
aF100.0
aF100.0
aF98.0
aF96.04000091552734
aF94.11920166015625
aF92.23681640625
aF90.39208221435547
aF88.58423614501953
aF86.81255340576172
aF85.07630157470703
aF83.3747787475586
aF81.70728302001953
aF80.07313537597656
aF78.47167205810547
aF76.90223693847656
aF75.36419677734375
aF73.8569107055664
aF72.37976837158203
aF70.93217468261719
aF69.51353454589844
aF68.12326049804688
aF66.76079559326172
aF65.42558288574219
aF64.11707305908203
aF62.8347282409668
aF61.578033447265625
aF60.346473693847656
aF100.0
aF100.0
aF100.0
aF98.0
aF96.04000091552734
aF94.11920166015625
aF92.23681640625
aF90.39208221435547
aF88.58423614501953
aF86.81255340576172
aF85.07630157470703
aF83.3747787475586
aF81.70728302001953
aF80.07313537597656
aF78.47167205810547
aF76.90223693847656
aF75.36419677734375
aF73.8569107055664
aF72.37976837158203
aF70.93217468261719
aF69.51353454589844
aF68.12326049804688
aF66.76079559326172
aF65.42558288574219
aF64.11707305908203
aF62.8347282409668
aF61.578033447265625
aF60.346473693847656
aF59.13954162597656
aF57.95675277709961
aF56.7976188659668
aF55.66166687011719
aF54.548431396484375
aF53.457462310791016
aF52.38831329345703
aF51.34054946899414
aF100.0
aF100.0
aF100.0
aF98.0
aF96.04000091552734
aF94.11920166015625
aF92.23681640625
aF90.39208221435547
aF88.58423614501953
aF86.81255340576172
aF85.07630157470703
aF83.3747787475586
aF81.70728302001953
aF80.07313537597656
aF78.47167205810547
aF76.90223693847656
aF75.36419677734375
aF73.8569107055664
aF72.37976837158203
aF70.93217468261719
aF69.51353454589844
aF68.12326049804688
aF66.76079559326172
aF65.42558288574219
aF64.11707305908203
aF62.8347282409668
aF61.578033447265625
aF60.346473693847656
aF59.13954162597656
aF57.95675277709961
aF56.7976188659668
aF55.66166687011719
aF54.548431396484375
aF53.457462310791016
aF52.38831329345703
aF51.34054946899414
aF50.31373596191406
aF49.30746078491211
aF48.321311950683594
aF47.35488510131836
aF46.40778732299805
aF45.47963333129883
aF44.57004165649414
aF43.67863845825195
aF42.8050651550293
aF100.0
aF100.0
aF100.0
aF98.0
aF96.04000091552734
aF94.11920166015625
aF92.23681640625
aF90.39208221435547
aF88.58423614501953
aF86.81255340576172
aF85.07630157470703
aF83.3747787475586
aF81.70728302001953
aF80.07313537597656
aF78.47167205810547
aF76.90223693847656
aF75.36419677734375
aF73.8569107055664
aF72.37976837158203
aF70.93217468261719
aF69.51353454589844
aF68.12326049804688
aF66.76079559326172
aF65.42558288574219
aF64.11707305908203
aF62.8347282409668
aF61.578033447265625
aF60.346473693847656
aF59.13954162597656
aF57.95675277709961
aF56.7976188659668
aF55.66166687011719
aF54.548431396484375
aF53.457462310791016
aF52.38831329345703
aF51.34054946899414
aF50.31373596191406
aF100.0
aF100.0
aF100.0
aF98.0
aF96.04000091552734
aF94.11920166015625
aF92.23681640625
aF90.39208221435547
aF88.58423614501953
aF86.81255340576172
aF85.07630157470703
aF83.3747787475586
aF81.70728302001953
aF80.07313537597656
aF78.47167205810547
aF76.90223693847656
aF75.36419677734375
aF73.8569107055664
aF72.37976837158203
aF70.93217468261719
aF69.51353454589844
aF68.12326049804688
aF66.76079559326172
aF65.42558288574219
aF64.11707305908203
aF62.8347282409668
aF61.578033447265625
aF60.346473693847656
aF100.0
aF100.0
aF100.0
aF98.0
aF96.04000091552734
aF94.11920166015625
aF92.23681640625
aF90.39208221435547
aF88.58423614501953
aF86.81255340576172
aF85.07630157470703
aF83.3747787475586
aF81.70728302001953
aF80.07313537597656
aF78.47167205810547
aF76.90223693847656
aF75.36419677734375
aF73.8569107055664
aF72.37976837158203
aF70.93217468261719
aF69.51353454589844
aF68.12326049804688
aF66.76079559326172
aF65.42558288574219
aF64.11707305908203
aF62.8347282409668
aF61.578033447265625
aF60.346473693847656
aF59.13954162597656
aF57.95675277709961
aF56.7976188659668
aF55.66166687011719
aF54.548431396484375
aF53.457462310791016
aF52.38831329345703
aF51.34054946899414
aF100.0
aF100.0
aF100.0
aF98.0
aF96.04000091552734
aF94.11920166015625
aF92.23681640625
aF90.39208221435547
aF88.58423614501953
aF86.81255340576172
aF85.07630157470703
aF83.3747787475586
aF81.70728302001953
aF80.07313537597656
aF78.47167205810547
aF76.90223693847656
aF75.36419677734375
aF73.8569107055664
aF72.37976837158203
aF70.93217468261719
aF69.51353454589844
aF68.12326049804688
aF66.76079559326172
aF65.42558288574219
aF64.11707305908203
aF62.8347282409668
aF61.578033447265625
aF60.346473693847656
aF59.13954162597656
aF57.95675277709961
aF56.7976188659668
aF55.66166687011719
aF54.548431396484375
aF53.457462310791016
aF52.38831329345703
aF51.34054946899414
aF50.31373596191406
aF49.30746078491211
aF48.321311950683594
aF47.35488510131836
aF46.40778732299805
aF45.47963333129883
aF44.57004165649414
aF43.67863845825195
aF42.8050651550293
aF100.0
aF100.0
aF100.0
aF98.0
aF96.04000091552734
aF94.11920166015625
aF92.23681640625
aF90.39208221435547
aF88.58423614501953
aF86.81255340576172
aF85.07630157470703
aF83.3747787475586
aF81.70728302001953
aF80.07313537597656
aF78.47167205810547
aF76.90223693847656
aF75.36419677734375
aF73.8569107055664
aF72.37976837158203
aF70.93217468261719
aF69.51353454589844
aF68.12326049804688
aF66.76079559326172
aF65.42558288574219
aF64.11707305908203
aF62.8347282409668
aF61.578033447265625
aF60.346473693847656
aF59.13954162597656
aF57.95675277709961
aF56.7976188659668
aF55.66166687011719
aF54.548431396484375
aF53.457462310791016
aF52.38831329345703
aF51.34054946899414
aF50.31373596191406
aF100.0
aF100.0
aF100.0
aF98.0
aF96.04000091552734
aF94.11920166015625
aF92.23681640625
aF90.39208221435547
aF88.58423614501953
aF86.81255340576172
aF85.07630157470703
aF83.3747787475586
aF81.70728302001953
aF80.07313537597656
aF78.47167205810547
aF76.90223693847656
aF75.36419677734375
aF73.8569107055664
aF72.37976837158203
aF70.93217468261719
aF69.51353454589844
aF68.12326049804688
aF66.76079559326172
aF65.42558288574219
aF64.11707305908203
aF62.8347282409668
aF61.578033447265625
aF60.346473693847656
aF100.0
aF100.0
aF100.0
aF98.0
aF96.04000091552734
aF94.11920166015625
aF92.23681640625
aF90.39208221435547
aF88.58423614501953
aF86.81255340576172
aF85.07630157470703
aF83.3747787475586
aF81.70728302001953
aF80.07313537597656
aF78.47167205810547
aF76.90223693847656
aF75.36419677734375
aF73.8569107055664
aF72.37976837158203
aF70.93217468261719
aF69.51353454589844
aF68.12326049804688
aF66.76079559326172
aF65.42558288574219
aF64.11707305908203
aF62.8347282409668
aF61.578033447265625
aF60.346473693847656
aF59.13954162597656
aF57.95675277709961
aF56.7976188659668
aF55.66166687011719
aF54.548431396484375
aF53.457462310791016
aF52.38831329345703
aF51.34054946899414
aF100.0
aF100.0
aF100.0
aF98.0
aF96.04000091552734
aF94.11920166015625
aF92.23681640625
aF90.39208221435547
aF88.58423614501953
aF86.81255340576172
aF85.07630157470703
aF83.3747787475586
aF81.70728302001953
aF80.07313537597656
aF78.47167205810547
aF76.90223693847656
aF75.36419677734375
aF73.8569107055664
aF72.37976837158203
aF70.93217468261719
aF69.51353454589844
aF68.12326049804688
aF66.76079559326172
aF65.42558288574219
aF64.11707305908203
aF62.8347282409668
aF61.578033447265625
aF60.346473693847656
aF59.13954162597656
aF57.95675277709961
aF56.7976188659668
aF55.66166687011719
aF54.548431396484375
aF53.457462310791016
aF52.38831329345703
aF51.34054946899414
aF50.31373596191406
aF49.30746078491211
aF48.321311950683594
aF47.35488510131836
aF46.40778732299805
aF45.47963333129883
aF44.57004165649414
aF43.67863845825195
aF42.8050651550293
aF100.0
aF100.0
aF100.0
aF98.0
aF96.04000091552734
aF94.11920166015625
aF92.23681640625
aF90.39208221435547
aF88.58423614501953
aF86.81255340576172
aF85.07630157470703
aF83.3747787475586
aF81.70728302001953
aF80.07313537597656
aF78.47167205810547
aF76.90223693847656
aF75.36419677734375
aF73.8569107055664
aF72.37976837158203
aF70.93217468261719
aF69.51353454589844
aF68.12326049804688
aF66.76079559326172
aF65.42558288574219
aF64.11707305908203
aF62.8347282409668
aF61.578033447265625
aF60.346473693847656
aF59.13954162597656
aF57.95675277709961
aF56.7976188659668
aF55.66166687011719
aF54.548431396484375
aF53.457462310791016
aF52.38831329345703
aF51.34054946899414
aF50.31373596191406
aF100.0
aF100.0
aF100.0
aF98.0
aF96.04000091552734
asI2
(lp7
F17.574729919433594
aF17.398983001708984
aF17.224992752075195
aF17.052743911743164
aF16.88221549987793
aF16.713394165039062
aF16.5462589263916
aF16.380796432495117
aF16.216989517211914
aF16.054819107055664
aF15.894270896911621
aF15.735328674316406
aF15.577975273132324
aF15.422195434570312
aF15.267972946166992
aF15.115293502807617
aF14.964140892028809
aF14.814498901367188
aF14.666354179382324
aF14.51969051361084
aF14.374493598937988
aF14.230749130249023
aF14.088440895080566
aF13.947556495666504
aF13.80808162689209
aF13.670000076293945
aF13.533300399780273
aF13.397967338562012
aF13.26398754119873
aF13.13134765625
aF13.00003433227539
aF12.870034217834473
aF12.741333961486816
aF12.613920211791992
aF12.487781524658203
aF12.362903594970703
aF12.239274024963379
aF12.116881370544434
aF11.995713233947754
aF11.875755310058594
aF11.756998062133789
aF11.63942813873291
aF11.52303409576416
aF11.407803535461426
aF11.293725967407227
aF11.180788040161133
aF11.06898021697998
aF10.958290100097656
aF10.84870719909668
aF10.74022102355957
aF10.632818222045898
aF10.526490211486816
aF10.421225547790527
aF10.317012786865234
aF10.21384334564209
aF10.11170482635498
aF10.010587692260742
aF9.910481452941895
aF9.811376571655273
aF9.713262557983398
aF9.616129875183105
aF9.51996898651123
aF9.424769401550293
aF9.330521583557129
aF9.237215995788574
aF9.144844055175781
aF9.053396224975586
aF8.962862014770508
aF8.8732328414917
aF8.784501075744629
aF8.696656227111816
aF8.609689712524414
aF8.523591995239258
aF8.438356399536133
aF8.353973388671875
aF8.27043342590332
aF8.187728881835938
aF8.105851173400879
aF8.024792671203613
aF7.944545269012451
aF7.865099906921387
aF7.786448955535889
aF7.708584308624268
aF7.631498336791992
aF7.555183410644531
aF7.479631423950195
aF7.404835224151611
aF7.33078670501709
aF7.257479190826416
aF7.184904098510742
aF7.113055229187012
aF7.041924476623535
aF6.971505641937256
aF6.901790142059326
aF6.832772254943848
aF6.764444828033447
aF6.696800231933594
aF6.6298322677612305
aF6.563533782958984
aF6.497898578643799
aF6.432919502258301
aF6.368590354919434
aF6.304904460906982
aF6.241855621337891
aF6.179437160491943
aF6.117642402648926
aF6.056466102600098
aF5.995901584625244
aF5.935942649841309
aF5.876583099365234
aF5.817817211151123
aF100.0
aF100.0
aF100.0
aF99.0
aF98.01000213623047
aF97.02989959716797
aF96.05960083007812
aF95.09900665283203
aF94.14801788330078
aF93.20653533935547
aF92.27446746826172
aF91.35172271728516
aF90.4382095336914
aF89.53382873535156
aF88.63848876953125
aF87.75210571289062
aF86.87458038330078
aF86.0058364868164
aF85.1457748413086
aF84.29431915283203
aF83.45137786865234
aF82.61685943603516
aF81.79069519042969
aF80.97278594970703
aF80.16305541992188
aF79.3614273071289
aF78.56781768798828
aF77.78213500976562
aF77.00431823730469
aF76.23426818847656
aF75.47193145751953
aF74.71720886230469
aF73.97003936767578
aF73.23033905029297
aF72.49803161621094
aF71.77305603027344
aF71.0553207397461
aF70.34477233886719
aF69.64131927490234
aF68.94490814208984
aF68.25546264648438
aF67.57290649414062
aF66.89717864990234
aF66.22820281982422
aF65.56592559814453
aF64.91026306152344
aF64.26116180419922
aF63.61854934692383
aF62.982364654541016
aF62.3525390625
aF61.7290153503418
aF61.111724853515625
aF60.500606536865234
aF59.895599365234375
aF59.29664611816406
aF58.703678131103516
aF58.116641998291016
aF57.53547668457031
aF56.960121154785156
aF56.39051818847656
aF55.82661437988281
aF55.268348693847656
aF54.71566390991211
aF54.16850662231445
aF53.62682342529297
aF53.090553283691406
aF52.55965042114258
aF52.034053802490234
aF51.513710021972656
aF50.998573303222656
aF50.488590240478516
aF49.98370361328125
aF49.48386764526367
aF48.98902893066406
aF48.49913787841797
aF48.01414489746094
aF47.53400421142578
aF47.05866241455078
aF46.588077545166016
aF46.122196197509766
aF45.66097640991211
aF45.20436477661133
aF44.752323150634766
aF100.0
aF100.0
aF100.0
aF99.0
aF98.01000213623047
aF97.02989959716797
aF96.05960083007812
aF95.09900665283203
aF94.14801788330078
aF93.20653533935547
aF92.27446746826172
aF91.35172271728516
aF90.4382095336914
aF89.53382873535156
aF88.63848876953125
aF87.75210571289062
aF86.87458038330078
aF86.0058364868164
aF85.1457748413086
aF84.29431915283203
aF83.45137786865234
aF82.61685943603516
aF81.79069519042969
aF80.97278594970703
aF80.16305541992188
aF79.3614273071289
aF78.56781768798828
aF77.78213500976562
aF77.00431823730469
aF76.23426818847656
aF75.47193145751953
aF74.71720886230469
aF73.97003936767578
aF73.23033905029297
aF72.49803161621094
aF71.77305603027344
aF71.0553207397461
aF70.34477233886719
aF100.0
aF100.0
aF100.0
aF99.0
aF98.01000213623047
aF97.02989959716797
aF96.05960083007812
aF95.09900665283203
aF94.14801788330078
aF93.20653533935547
aF92.27446746826172
aF91.35172271728516
aF90.4382095336914
aF89.53382873535156
aF88.63848876953125
aF87.75210571289062
aF86.87458038330078
aF86.0058364868164
aF85.1457748413086
aF84.29431915283203
aF83.45137786865234
aF82.61685943603516
aF81.79069519042969
aF80.97278594970703
aF80.16305541992188
aF79.3614273071289
aF78.56781768798828
aF77.78213500976562
aF77.00431823730469
aF76.23426818847656
aF75.47193145751953
aF74.71720886230469
aF73.97003936767578
aF73.23033905029297
aF72.49803161621094
aF71.77305603027344
aF71.0553207397461
aF70.34477233886719
aF69.64131927490234
aF68.94490814208984
aF68.25546264648438
aF67.57290649414062
aF66.89717864990234
aF66.22820281982422
aF65.56592559814453
aF64.91026306152344
aF64.26116180419922
aF63.61854934692383
aF62.982364654541016
aF62.3525390625
aF61.7290153503418
aF61.111724853515625
aF60.500606536865234
aF59.895599365234375
aF59.29664611816406
aF100.0
aF100.0
aF100.0
aF99.0
aF98.01000213623047
aF97.02989959716797
aF96.05960083007812
aF95.09900665283203
aF94.14801788330078
aF93.20653533935547
aF92.27446746826172
aF91.35172271728516
aF90.4382095336914
aF89.53382873535156
aF88.63848876953125
aF87.75210571289062
aF86.87458038330078
aF86.0058364868164
aF85.1457748413086
aF84.29431915283203
aF83.45137786865234
aF82.61685943603516
aF81.79069519042969
aF80.97278594970703
aF80.16305541992188
aF79.3614273071289
aF78.56781768798828
aF77.78213500976562
aF77.00431823730469
aF76.23426818847656
aF75.47193145751953
aF74.71720886230469
aF73.97003936767578
aF73.23033905029297
aF72.49803161621094
aF71.77305603027344
aF71.0553207397461
aF70.34477233886719
aF69.64131927490234
aF68.94490814208984
aF68.25546264648438
aF67.57290649414062
aF66.89717864990234
aF66.22820281982422
aF65.56592559814453
aF64.91026306152344
aF64.26116180419922
aF63.61854934692383
aF62.982364654541016
aF62.3525390625
aF61.7290153503418
aF61.111724853515625
aF60.500606536865234
aF59.895599365234375
aF59.29664611816406
aF58.703678131103516
aF58.116641998291016
aF57.53547668457031
aF56.960121154785156
aF56.39051818847656
aF55.82661437988281
aF55.268348693847656
aF54.71566390991211
aF54.16850662231445
aF53.62682342529297
aF53.090553283691406
aF52.55965042114258
aF52.034053802490234
aF51.513710021972656
aF50.998573303222656
aF50.488590240478516
aF49.98370361328125
aF49.48386764526367
aF48.98902893066406
aF48.49913787841797
aF48.01414489746094
aF47.53400421142578
aF47.05866241455078
aF46.588077545166016
aF46.122196197509766
aF45.66097640991211
aF45.20436477661133
aF44.752323150634766
aF100.0
aF100.0
aF100.0
aF99.0
aF98.01000213623047
aF97.02989959716797
aF96.05960083007812
aF95.09900665283203
aF94.14801788330078
aF93.20653533935547
aF92.27446746826172
aF91.35172271728516
aF90.4382095336914
aF89.53382873535156
aF88.63848876953125
aF87.75210571289062
aF86.87458038330078
aF86.0058364868164
aF85.1457748413086
aF84.29431915283203
aF83.45137786865234
aF82.61685943603516
aF81.79069519042969
aF80.97278594970703
aF80.16305541992188
aF79.3614273071289
aF78.56781768798828
aF77.78213500976562
aF77.00431823730469
aF76.23426818847656
aF75.47193145751953
aF74.71720886230469
aF73.97003936767578
aF73.23033905029297
aF72.49803161621094
aF71.77305603027344
aF71.0553207397461
aF70.34477233886719
aF69.64131927490234
aF68.94490814208984
aF68.25546264648438
aF67.57290649414062
aF66.89717864990234
aF66.22820281982422
aF65.56592559814453
aF64.91026306152344
aF64.26116180419922
aF63.61854934692383
aF62.982364654541016
aF62.3525390625
aF61.7290153503418
aF61.111724853515625
aF60.500606536865234
aF59.895599365234375
aF59.29664611816406
aF58.703678131103516
aF58.116641998291016
aF57.53547668457031
aF56.960121154785156
aF56.39051818847656
aF55.82661437988281
aF55.268348693847656
aF54.71566390991211
aF54.16850662231445
aF100.0
aF100.0
aF100.0
aF99.0
aF98.01000213623047
aF97.02989959716797
aF96.05960083007812
aF95.09900665283203
aF94.14801788330078
aF93.20653533935547
aF92.27446746826172
aF91.35172271728516
aF90.4382095336914
aF89.53382873535156
aF88.63848876953125
aF87.75210571289062
aF86.87458038330078
aF86.0058364868164
aF85.1457748413086
aF84.29431915283203
aF83.45137786865234
aF82.61685943603516
aF81.79069519042969
aF80.97278594970703
aF80.16305541992188
aF79.3614273071289
aF78.56781768798828
aF77.78213500976562
aF77.00431823730469
aF76.23426818847656
aF75.47193145751953
aF74.71720886230469
aF73.97003936767578
aF73.23033905029297
aF72.49803161621094
aF71.77305603027344
aF71.0553207397461
aF70.34477233886719
aF69.64131927490234
aF68.94490814208984
aF68.25546264648438
aF67.57290649414062
aF66.89717864990234
aF66.22820281982422
aF65.56592559814453
aF64.91026306152344
aF64.26116180419922
aF63.61854934692383
aF62.982364654541016
aF62.3525390625
aF61.7290153503418
aF61.111724853515625
aF60.500606536865234
aF59.895599365234375
aF59.29664611816406
aF58.703678131103516
aF58.116641998291016
aF57.53547668457031
aF56.960121154785156
aF56.39051818847656
aF55.82661437988281
aF55.268348693847656
aF54.71566390991211
aF54.16850662231445
aF53.62682342529297
aF53.090553283691406
aF52.55965042114258
aF52.034053802490234
aF51.513710021972656
aF50.998573303222656
aF50.488590240478516
aF49.98370361328125
aF49.48386764526367
aF48.98902893066406
aF48.49913787841797
aF48.01414489746094
aF47.53400421142578
aF47.05866241455078
aF46.588077545166016
aF46.122196197509766
aF45.66097640991211
aF45.20436477661133
aF100.0
aF100.0
aF100.0
aF99.0
aF98.01000213623047
aF97.02989959716797
aF96.05960083007812
aF95.09900665283203
aF94.14801788330078
aF93.20653533935547
aF92.27446746826172
aF91.35172271728516
aF90.4382095336914
aF89.53382873535156
aF88.63848876953125
aF87.75210571289062
aF86.87458038330078
aF86.0058364868164
aF85.1457748413086
aF84.29431915283203
aF83.45137786865234
aF82.61685943603516
aF81.79069519042969
aF80.97278594970703
aF80.16305541992188
aF79.3614273071289
aF78.56781768798828
aF77.78213500976562
aF77.00431823730469
aF76.23426818847656
aF75.47193145751953
aF74.71720886230469
aF73.97003936767578
aF73.23033905029297
aF72.49803161621094
aF71.77305603027344
aF71.0553207397461
aF70.34477233886719
aF69.64131927490234
aF68.94490814208984
aF68.25546264648438
aF67.57290649414062
aF66.89717864990234
aF66.22820281982422
aF65.56592559814453
aF64.91026306152344
aF64.26116180419922
aF63.61854934692383
aF62.982364654541016
aF62.3525390625
aF61.7290153503418
aF61.111724853515625
aF60.500606536865234
aF59.895599365234375
aF59.29664611816406
aF58.703678131103516
aF58.116641998291016
aF57.53547668457031
aF56.960121154785156
aF56.39051818847656
aF55.82661437988281
aF55.268348693847656
aF54.71566390991211
aF54.16850662231445
aF100.0
aF100.0
aF100.0
aF99.0
aF98.01000213623047
aF97.02989959716797
aF96.05960083007812
aF95.09900665283203
aF94.14801788330078
aF93.20653533935547
aF92.27446746826172
aF91.35172271728516
aF90.4382095336914
aF89.53382873535156
aF88.63848876953125
aF87.75210571289062
aF86.87458038330078
aF86.0058364868164
aF85.1457748413086
aF84.29431915283203
aF83.45137786865234
aF82.61685943603516
aF81.79069519042969
aF80.97278594970703
aF80.16305541992188
aF79.3614273071289
aF78.56781768798828
aF77.78213500976562
aF77.00431823730469
aF76.23426818847656
aF75.47193145751953
aF74.71720886230469
aF73.97003936767578
aF73.23033905029297
aF72.49803161621094
aF71.77305603027344
aF71.0553207397461
aF70.34477233886719
aF69.64131927490234
aF68.94490814208984
aF68.25546264648438
aF67.57290649414062
aF66.89717864990234
aF66.22820281982422
aF65.56592559814453
aF64.91026306152344
aF64.26116180419922
aF63.61854934692383
aF62.982364654541016
aF62.3525390625
aF61.7290153503418
aF61.111724853515625
aF60.500606536865234
aF59.895599365234375
aF59.29664611816406
aF58.703678131103516
aF58.116641998291016
aF57.53547668457031
aF56.960121154785156
aF56.39051818847656
aF55.82661437988281
aF55.268348693847656
aF54.71566390991211
aF54.16850662231445
aF53.62682342529297
aF53.090553283691406
aF52.55965042114258
aF52.034053802490234
aF51.513710021972656
aF50.998573303222656
aF50.488590240478516
aF49.98370361328125
aF49.48386764526367
aF48.98902893066406
aF48.49913787841797
aF48.01414489746094
aF47.53400421142578
aF47.05866241455078
aF46.588077545166016
aF46.122196197509766
aF45.66097640991211
aF45.20436477661133
aF100.0
aF100.0
aF100.0
aF99.0
aF98.01000213623047
aF97.02989959716797
aF96.05960083007812
aF95.09900665283203
aF94.14801788330078
aF93.20653533935547
aF92.27446746826172
aF91.35172271728516
aF90.4382095336914
aF89.53382873535156
aF88.63848876953125
aF87.75210571289062
aF86.87458038330078
aF86.0058364868164
aF85.1457748413086
aF84.29431915283203
aF83.45137786865234
aF82.61685943603516
aF81.79069519042969
aF80.97278594970703
aF80.16305541992188
aF79.3614273071289
aF78.56781768798828
aF77.78213500976562
aF77.00431823730469
aF76.23426818847656
aF75.47193145751953
aF74.71720886230469
aF73.97003936767578
aF73.23033905029297
aF72.49803161621094
aF71.77305603027344
aF71.0553207397461
aF70.34477233886719
aF69.64131927490234
aF68.94490814208984
aF68.25546264648438
aF67.57290649414062
aF66.89717864990234
aF66.22820281982422
aF65.56592559814453
aF64.91026306152344
aF64.26116180419922
aF63.61854934692383
aF62.982364654541016
aF62.3525390625
aF61.7290153503418
aF61.111724853515625
aF60.500606536865234
aF59.895599365234375
aF59.29664611816406
aF58.703678131103516
aF58.116641998291016
aF57.53547668457031
aF56.960121154785156
aF56.39051818847656
aF55.82661437988281
aF55.268348693847656
aF54.71566390991211
aF54.16850662231445
aF100.0
aF100.0
aF100.0
aF99.0
aF98.01000213623047
aF97.02989959716797
aF96.05960083007812
aF95.09900665283203
aF94.14801788330078
aF93.20653533935547
aF92.27446746826172
aF91.35172271728516
aF90.4382095336914
aF89.53382873535156
aF88.63848876953125
aF87.75210571289062
aF86.87458038330078
aF86.0058364868164
aF85.1457748413086
aF84.29431915283203
aF83.45137786865234
aF82.61685943603516
aF81.79069519042969
aF80.97278594970703
aF80.16305541992188
aF79.3614273071289
aF78.56781768798828
aF77.78213500976562
aF77.00431823730469
aF76.23426818847656
aF75.47193145751953
aF74.71720886230469
aF73.97003936767578
aF73.23033905029297
aF72.49803161621094
aF71.77305603027344
aF71.0553207397461
aF70.34477233886719
aF69.64131927490234
aF68.94490814208984
aF68.25546264648438
aF67.57290649414062
aF66.89717864990234
aF66.22820281982422
aF65.56592559814453
aF64.91026306152344
aF64.26116180419922
aF63.61854934692383
aF62.982364654541016
aF62.3525390625
aF61.7290153503418
aF61.111724853515625
aF60.500606536865234
aF59.895599365234375
aF59.29664611816406
aF58.703678131103516
aF58.116641998291016
aF57.53547668457031
aF56.960121154785156
aF56.39051818847656
aF55.82661437988281
aF55.268348693847656
aF54.71566390991211
aF54.16850662231445
aF53.62682342529297
aF53.090553283691406
aF52.55965042114258
aF52.034053802490234
aF51.513710021972656
aF50.998573303222656
aF50.488590240478516
aF49.98370361328125
aF49.48386764526367
aF48.98902893066406
aF48.49913787841797
aF48.01414489746094
aF47.53400421142578
aF47.05866241455078
aF46.588077545166016
aF46.122196197509766
aF45.66097640991211
aF45.20436477661133
aF100.0
aF100.0
aF100.0
aF99.0
aF98.01000213623047
aF97.02989959716797
aF96.05960083007812
aF95.09900665283203
aF94.14801788330078
aF93.20653533935547
aF92.27446746826172
aF91.35172271728516
aF90.4382095336914
aF89.53382873535156
aF88.63848876953125
aF87.75210571289062
aF86.87458038330078
aF86.0058364868164
aF85.1457748413086
aF84.29431915283203
aF83.45137786865234
aF82.61685943603516
aF81.79069519042969
aF80.97278594970703
aF80.16305541992188
aF79.3614273071289
aF78.56781768798828
aF77.78213500976562
aF77.00431823730469
aF76.23426818847656
aF75.47193145751953
aF74.71720886230469
aF73.97003936767578
aF73.23033905029297
aF72.49803161621094
aF71.77305603027344
aF71.0553207397461
aF70.34477233886719
aF69.64131927490234
aF68.94490814208984
aF68.25546264648438
aF67.57290649414062
aF66.89717864990234
aF66.22820281982422
aF65.56592559814453
aF64.91026306152344
aF64.26116180419922
aF63.61854934692383
aF62.982364654541016
aF62.3525390625
aF61.7290153503418
aF61.111724853515625
aF60.500606536865234
aF59.895599365234375
aF59.29664611816406
aF58.703678131103516
aF58.116641998291016
aF57.53547668457031
aF56.960121154785156
aF56.39051818847656
aF55.82661437988281
aF55.268348693847656
aF54.71566390991211
aF54.16850662231445
aF100.0
aF100.0
aF100.0
aF99.0
aF98.01000213623047
aF97.02989959716797
aF96.05960083007812
aF95.09900665283203
aF94.14801788330078
aF93.20653533935547
aF92.27446746826172
aF91.35172271728516
aF90.4382095336914
aF89.53382873535156
aF88.63848876953125
aF87.75210571289062
aF86.87458038330078
aF86.0058364868164
aF85.1457748413086
aF84.29431915283203
aF83.45137786865234
aF82.61685943603516
aF81.79069519042969
aF80.97278594970703
aF80.16305541992188
aF79.3614273071289
aF78.56781768798828
aF77.78213500976562
aF77.00431823730469
aF76.23426818847656
aF75.47193145751953
aF74.71720886230469
aF73.97003936767578
aF73.23033905029297
aF72.49803161621094
aF71.77305603027344
aF71.0553207397461
aF70.34477233886719
aF69.64131927490234
aF68.94490814208984
aF68.25546264648438
aF67.57290649414062
aF66.89717864990234
aF66.22820281982422
aF65.56592559814453
aF64.91026306152344
aF64.26116180419922
aF63.61854934692383
aF62.982364654541016
aF62.3525390625
aF61.7290153503418
aF61.111724853515625
aF60.500606536865234
aF59.895599365234375
aF59.29664611816406
aF58.703678131103516
aF58.116641998291016
aF57.53547668457031
aF56.960121154785156
aF56.39051818847656
aF55.82661437988281
aF55.268348693847656
aF54.71566390991211
aF54.16850662231445
aF53.62682342529297
aF53.090553283691406
aF52.55965042114258
aF52.034053802490234
aF51.513710021972656
aF50.998573303222656
aF50.488590240478516
aF49.98370361328125
aF49.48386764526367
aF48.98902893066406
aF48.49913787841797
aF48.01414489746094
aF47.53400421142578
aF47.05866241455078
aF46.588077545166016
aF46.122196197509766
aF45.66097640991211
aF45.20436477661133
aF100.0
aF100.0
aF100.0
aF99.0
aF98.01000213623047
aF97.02989959716797
aF96.05960083007812
aF95.09900665283203
aF94.14801788330078
aF93.20653533935547
aF92.27446746826172
aF91.35172271728516
aF90.4382095336914
aF89.53382873535156
aF88.63848876953125
aF87.75210571289062
aF86.87458038330078
aF86.0058364868164
aF85.1457748413086
aF84.29431915283203
aF83.45137786865234
aF82.61685943603516
aF81.79069519042969
aF80.97278594970703
aF80.16305541992188
aF79.3614273071289
aF78.56781768798828
aF77.78213500976562
aF77.00431823730469
aF76.23426818847656
aF75.47193145751953
aF74.71720886230469
aF73.97003936767578
aF73.23033905029297
aF72.49803161621094
aF71.77305603027344
aF71.0553207397461
aF70.34477233886719
aF69.64131927490234
aF68.94490814208984
aF68.25546264648438
aF67.57290649414062
aF66.89717864990234
aF66.22820281982422
aF65.56592559814453
aF64.91026306152344
aF64.26116180419922
aF63.61854934692383
aF62.982364654541016
aF62.3525390625
aF61.7290153503418
aF61.111724853515625
aF60.500606536865234
aF59.895599365234375
aF59.29664611816406
aF58.703678131103516
aF58.116641998291016
aF57.53547668457031
aF56.960121154785156
aF56.39051818847656
aF55.82661437988281
aF55.268348693847656
aF54.71566390991211
aF54.16850662231445
aF100.0
aF100.0
aF100.0
aF99.0
aF98.01000213623047
aF97.02989959716797
aF96.05960083007812
aF95.09900665283203
aF94.14801788330078
aF93.20653533935547
aF92.27446746826172
aF91.35172271728516
aF90.4382095336914
aF89.53382873535156
aF88.63848876953125
aF87.75210571289062
aF86.87458038330078
aF86.0058364868164
aF85.1457748413086
aF84.29431915283203
aF83.45137786865234
aF82.61685943603516
aF81.79069519042969
aF80.97278594970703
aF80.16305541992188
aF79.3614273071289
aF78.56781768798828
aF77.78213500976562
aF77.00431823730469
aF76.23426818847656
aF75.47193145751953
aF74.71720886230469
aF73.97003936767578
aF73.23033905029297
aF72.49803161621094
aF71.77305603027344
aF71.0553207397461
aF70.34477233886719
aF69.64131927490234
aF68.94490814208984
aF68.25546264648438
aF67.57290649414062
aF66.89717864990234
aF66.22820281982422
aF65.56592559814453
aF64.91026306152344
aF64.26116180419922
aF63.61854934692383
aF62.982364654541016
aF62.3525390625
aF61.7290153503418
aF61.111724853515625
aF60.500606536865234
aF59.895599365234375
aF59.29664611816406
aF58.703678131103516
aF58.116641998291016
aF57.53547668457031
aF56.960121154785156
aF56.39051818847656
aF55.82661437988281
aF55.268348693847656
aF54.71566390991211
aF54.16850662231445
aF53.62682342529297
aF53.090553283691406
aF52.55965042114258
aF52.034053802490234
aF51.513710021972656
aF50.998573303222656
aF50.488590240478516
aF49.98370361328125
aF49.48386764526367
aF48.98902893066406
aF48.49913787841797
aF48.01414489746094
aF47.53400421142578
aF47.05866241455078
aF46.588077545166016
aF46.122196197509766
aF45.66097640991211
aF45.20436477661133
aF100.0
aF100.0
aF100.0
aF99.0
aF98.01000213623047
aF97.02989959716797
aF96.05960083007812
aF95.09900665283203
aF94.14801788330078
aF93.20653533935547
aF92.27446746826172
aF91.35172271728516
aF90.4382095336914
aF89.53382873535156
aF88.63848876953125
aF87.75210571289062
aF86.87458038330078
aF86.0058364868164
aF85.1457748413086
aF84.29431915283203
aF83.45137786865234
aF82.61685943603516
aF81.79069519042969
aF80.97278594970703
aF80.16305541992188
aF79.3614273071289
aF78.56781768798828
aF77.78213500976562
aF77.00431823730469
aF76.23426818847656
aF75.47193145751953
aF74.71720886230469
aF73.97003936767578
aF73.23033905029297
aF72.49803161621094
aF71.77305603027344
aF71.0553207397461
aF70.34477233886719
aF69.64131927490234
aF68.94490814208984
aF68.25546264648438
aF67.57290649414062
aF66.89717864990234
aF66.22820281982422
aF65.56592559814453
aF64.91026306152344
aF64.26116180419922
aF63.61854934692383
aF62.982364654541016
aF62.3525390625
aF61.7290153503418
aF61.111724853515625
aF60.500606536865234
aF59.895599365234375
aF59.29664611816406
aF58.703678131103516
aF58.116641998291016
aF57.53547668457031
aF56.960121154785156
aF56.39051818847656
aF55.82661437988281
aF55.268348693847656
aF54.71566390991211
aF54.16850662231445
aF100.0
aF100.0
aF100.0
aF99.0
aF98.01000213623047
aF97.02989959716797
aF96.05960083007812
aF95.09900665283203
aF94.14801788330078
aF93.20653533935547
aF92.27446746826172
aF91.35172271728516
aF90.4382095336914
aF89.53382873535156
aF88.63848876953125
aF87.75210571289062
aF86.87458038330078
aF86.0058364868164
aF85.1457748413086
aF84.29431915283203
aF83.45137786865234
aF82.61685943603516
aF81.79069519042969
aF80.97278594970703
aF80.16305541992188
aF79.3614273071289
aF78.56781768798828
aF77.78213500976562
aF77.00431823730469
aF76.23426818847656
aF75.47193145751953
aF74.71720886230469
aF73.97003936767578
aF73.23033905029297
aF72.49803161621094
aF71.77305603027344
aF71.0553207397461
aF70.34477233886719
aF69.64131927490234
aF68.94490814208984
aF68.25546264648438
aF67.57290649414062
aF66.89717864990234
aF66.22820281982422
aF65.56592559814453
aF64.91026306152344
aF64.26116180419922
aF63.61854934692383
aF62.982364654541016
aF62.3525390625
aF61.7290153503418
aF61.111724853515625
aF60.500606536865234
aF59.895599365234375
aF59.29664611816406
aF58.703678131103516
aF58.116641998291016
aF57.53547668457031
aF56.960121154785156
aF56.39051818847656
aF55.82661437988281
aF55.268348693847656
aF54.71566390991211
aF54.16850662231445
aF53.62682342529297
aF53.090553283691406
aF52.55965042114258
aF52.034053802490234
aF51.513710021972656
aF50.998573303222656
aF50.488590240478516
aF49.98370361328125
aF49.48386764526367
aF48.98902893066406
aF48.49913787841797
aF48.01414489746094
aF47.53400421142578
aF47.05866241455078
aF46.588077545166016
aF46.122196197509766
aF45.66097640991211
aF45.20436477661133
aF100.0
aF100.0
aF100.0
aF99.0
aF98.01000213623047
aF97.02989959716797
aF96.05960083007812
aF95.09900665283203
aF94.14801788330078
aF93.20653533935547
aF92.27446746826172
aF91.35172271728516
aF90.4382095336914
aF89.53382873535156
aF88.63848876953125
aF87.75210571289062
aF86.87458038330078
aF86.0058364868164
aF85.1457748413086
aF84.29431915283203
aF83.45137786865234
aF82.61685943603516
aF81.79069519042969
aF80.97278594970703
aF80.16305541992188
aF79.3614273071289
aF78.56781768798828
aF77.78213500976562
aF77.00431823730469
aF76.23426818847656
aF75.47193145751953
aF74.71720886230469
aF73.97003936767578
aF73.23033905029297
aF72.49803161621094
aF71.77305603027344
aF71.0553207397461
aF70.34477233886719
aF69.64131927490234
aF68.94490814208984
aF68.25546264648438
aF67.57290649414062
aF66.89717864990234
aF66.22820281982422
aF65.56592559814453
aF64.91026306152344
aF64.26116180419922
aF63.61854934692383
aF62.982364654541016
aF62.3525390625
aF61.7290153503418
aF61.111724853515625
aF60.500606536865234
aF59.895599365234375
aF59.29664611816406
aF58.703678131103516
aF58.116641998291016
aF57.53547668457031
aF56.960121154785156
aF56.39051818847656
aF55.82661437988281
aF55.268348693847656
aF54.71566390991211
aF54.16850662231445
aF100.0
aF100.0
aF100.0
aF99.0
aF98.01000213623047
aF97.02989959716797
aF96.05960083007812
aF95.09900665283203
aF94.14801788330078
aF93.20653533935547
aF92.27446746826172
aF91.35172271728516
aF90.4382095336914
aF89.53382873535156
aF88.63848876953125
aF87.75210571289062
aF86.87458038330078
aF86.0058364868164
aF85.1457748413086
aF84.29431915283203
aF83.45137786865234
aF82.61685943603516
aF81.79069519042969
aF80.97278594970703
aF80.16305541992188
aF79.3614273071289
aF78.56781768798828
aF77.78213500976562
aF77.00431823730469
aF76.23426818847656
aF75.47193145751953
aF74.71720886230469
aF73.97003936767578
aF73.23033905029297
aF72.49803161621094
aF71.77305603027344
aF71.0553207397461
aF70.34477233886719
aF69.64131927490234
aF68.94490814208984
aF68.25546264648438
aF67.57290649414062
aF66.89717864990234
aF66.22820281982422
aF65.56592559814453
aF64.91026306152344
aF64.26116180419922
aF63.61854934692383
aF62.982364654541016
aF62.3525390625
aF61.7290153503418
aF61.111724853515625
aF60.500606536865234
aF59.895599365234375
aF59.29664611816406
aF58.703678131103516
aF58.116641998291016
aF57.53547668457031
aF56.960121154785156
aF56.39051818847656
aF55.82661437988281
aF55.268348693847656
aF54.71566390991211
aF54.16850662231445
aF53.62682342529297
aF53.090553283691406
aF52.55965042114258
aF52.034053802490234
aF51.513710021972656
aF50.998573303222656
aF50.488590240478516
aF49.98370361328125
aF49.48386764526367
aF48.98902893066406
aF48.49913787841797
aF48.01414489746094
aF47.53400421142578
aF47.05866241455078
aF46.588077545166016
aF46.122196197509766
aF45.66097640991211
aF45.20436477661133
aF100.0
aF100.0
aF100.0
aF99.0
aF98.01000213623047
aF97.02989959716797
aF96.05960083007812
aF95.09900665283203
aF94.14801788330078
aF93.20653533935547
aF92.27446746826172
aF91.35172271728516
aF90.4382095336914
aF89.53382873535156
aF88.63848876953125
aF87.75210571289062
aF86.87458038330078
aF86.0058364868164
aF85.1457748413086
aF84.29431915283203
aF83.45137786865234
aF82.61685943603516
aF81.79069519042969
aF80.97278594970703
aF80.16305541992188
aF79.3614273071289
aF78.56781768798828
aF77.78213500976562
aF77.00431823730469
aF76.23426818847656
aF75.47193145751953
aF74.71720886230469
aF73.97003936767578
aF73.23033905029297
aF72.49803161621094
aF71.77305603027344
aF71.0553207397461
aF70.34477233886719
aF69.64131927490234
aF68.94490814208984
aF68.25546264648438
aF67.57290649414062
aF66.89717864990234
aF66.22820281982422
aF65.56592559814453
aF64.91026306152344
aF64.26116180419922
aF63.61854934692383
aF62.982364654541016
aF62.3525390625
aF61.7290153503418
aF61.111724853515625
aF60.500606536865234
aF59.895599365234375
aF59.29664611816406
aF58.703678131103516
aF58.116641998291016
aF57.53547668457031
aF56.960121154785156
aF56.39051818847656
aF55.82661437988281
aF55.268348693847656
aF54.71566390991211
aF54.16850662231445
aF100.0
aF100.0
aF100.0
aF99.0
aF98.01000213623047
aF97.02989959716797
aF96.05960083007812
aF95.09900665283203
aF94.14801788330078
aF93.20653533935547
aF92.27446746826172
aF91.35172271728516
aF90.4382095336914
aF89.53382873535156
aF88.63848876953125
aF87.75210571289062
aF86.87458038330078
aF86.0058364868164
aF85.1457748413086
aF84.29431915283203
aF83.45137786865234
aF82.61685943603516
aF81.79069519042969
aF80.97278594970703
aF80.16305541992188
aF79.3614273071289
aF78.56781768798828
aF77.78213500976562
aF77.00431823730469
aF76.23426818847656
aF75.47193145751953
aF74.71720886230469
aF73.97003936767578
aF73.23033905029297
aF72.49803161621094
aF71.77305603027344
aF71.0553207397461
aF70.34477233886719
aF69.64131927490234
aF68.94490814208984
aF68.25546264648438
aF67.57290649414062
aF66.89717864990234
aF66.22820281982422
aF65.56592559814453
aF64.91026306152344
aF64.26116180419922
aF63.61854934692383
aF62.982364654541016
aF62.3525390625
aF61.7290153503418
aF61.111724853515625
aF60.500606536865234
aF59.895599365234375
aF59.29664611816406
aF58.703678131103516
aF58.116641998291016
aF57.53547668457031
aF56.960121154785156
aF56.39051818847656
aF55.82661437988281
aF55.268348693847656
aF54.71566390991211
aF54.16850662231445
aF53.62682342529297
aF53.090553283691406
aF52.55965042114258
aF52.034053802490234
aF51.513710021972656
aF50.998573303222656
aF50.488590240478516
aF49.98370361328125
aF49.48386764526367
aF48.98902893066406
aF48.49913787841797
aF48.01414489746094
aF47.53400421142578
aF47.05866241455078
aF46.588077545166016
aF46.122196197509766
aF45.66097640991211
aF45.20436477661133
aF44.752323150634766
aF100.0
aF100.0
aF100.0
aF99.0
aF98.01000213623047
aF97.02989959716797
aF96.05960083007812
aF95.09900665283203
aF94.14801788330078
aF93.20653533935547
aF92.27446746826172
aF91.35172271728516
aF90.4382095336914
aF89.53382873535156
aF88.63848876953125
aF87.75210571289062
aF86.87458038330078
aF86.0058364868164
aF85.1457748413086
aF84.29431915283203
aF83.45137786865234
aF82.61685943603516
aF81.79069519042969
aF80.97278594970703
aF80.16305541992188
aF79.3614273071289
aF78.56781768798828
aF77.78213500976562
aF77.00431823730469
aF76.23426818847656
aF75.47193145751953
aF74.71720886230469
aF73.97003936767578
aF73.23033905029297
aF72.49803161621094
aF71.77305603027344
aF71.0553207397461
aF70.34477233886719
aF69.64131927490234
aF68.94490814208984
aF68.25546264648438
aF67.57290649414062
aF66.89717864990234
aF66.22820281982422
aF65.56592559814453
aF64.91026306152344
aF64.26116180419922
aF63.61854934692383
aF62.982364654541016
aF62.3525390625
aF61.7290153503418
aF61.111724853515625
aF60.500606536865234
aF59.895599365234375
aF59.29664611816406
aF58.703678131103516
aF58.116641998291016
aF57.53547668457031
aF56.960121154785156
aF56.39051818847656
aF55.82661437988281
aF55.268348693847656
aF54.71566390991211
aF100.0
aF100.0
aF100.0
aF99.0
aF98.01000213623047
aF97.02989959716797
aF96.05960083007812
aF95.09900665283203
aF94.14801788330078
aF93.20653533935547
aF92.27446746826172
aF91.35172271728516
aF90.4382095336914
aF89.53382873535156
aF88.63848876953125
aF87.75210571289062
aF86.87458038330078
aF86.0058364868164
aF85.1457748413086
aF84.29431915283203
aF83.45137786865234
aF82.61685943603516
aF81.79069519042969
aF80.97278594970703
aF80.16305541992188
aF79.3614273071289
aF78.56781768798828
aF77.78213500976562
aF77.00431823730469
aF76.23426818847656
aF75.47193145751953
aF74.71720886230469
aF73.97003936767578
aF73.23033905029297
aF72.49803161621094
aF71.77305603027344
aF71.0553207397461
aF70.34477233886719
aF69.64131927490234
aF68.94490814208984
aF68.25546264648438
aF67.57290649414062
aF66.89717864990234
aF66.22820281982422
aF65.56592559814453
aF64.91026306152344
aF64.26116180419922
aF63.61854934692383
aF62.982364654541016
aF62.3525390625
aF61.7290153503418
aF61.111724853515625
aF60.500606536865234
aF59.895599365234375
aF59.29664611816406
aF58.703678131103516
aF58.116641998291016
aF57.53547668457031
aF56.960121154785156
aF56.39051818847656
aF55.82661437988281
aF55.268348693847656
aF54.71566390991211
aF54.16850662231445
aF53.62682342529297
aF53.090553283691406
aF52.55965042114258
aF52.034053802490234
aF51.513710021972656
aF50.998573303222656
aF50.488590240478516
aF49.98370361328125
aF49.48386764526367
aF48.98902893066406
aF48.49913787841797
aF48.01414489746094
aF47.53400421142578
aF47.05866241455078
aF46.588077545166016
aF46.122196197509766
aF45.66097640991211
aF45.20436477661133
aF100.0
aF100.0
aF100.0
aF99.0
aF98.01000213623047
aF97.02989959716797
aF96.05960083007812
aF95.09900665283203
aF94.14801788330078
aF93.20653533935547
aF92.27446746826172
aF91.35172271728516
aF90.4382095336914
aF89.53382873535156
aF88.63848876953125
aF87.75210571289062
aF86.87458038330078
aF86.0058364868164
aF85.1457748413086
aF84.29431915283203
aF83.45137786865234
aF82.61685943603516
aF81.79069519042969
aF80.97278594970703
aF80.16305541992188
aF79.3614273071289
aF78.56781768798828
aF77.78213500976562
aF77.00431823730469
aF76.23426818847656
aF75.47193145751953
aF74.71720886230469
aF73.97003936767578
aF73.23033905029297
aF72.49803161621094
aF71.77305603027344
aF71.0553207397461
aF70.34477233886719
aF69.64131927490234
aF68.94490814208984
aF68.25546264648438
aF67.57290649414062
aF66.89717864990234
aF66.22820281982422
aF65.56592559814453
aF64.91026306152344
aF64.26116180419922
aF63.61854934692383
aF62.982364654541016
aF62.3525390625
aF61.7290153503418
aF61.111724853515625
aF60.500606536865234
aF59.895599365234375
aF59.29664611816406
aF58.703678131103516
aF58.116641998291016
aF57.53547668457031
aF56.960121154785156
aF56.39051818847656
aF55.82661437988281
aF55.268348693847656
aF54.71566390991211
aF54.16850662231445
aF100.0
aF100.0
aF100.0
aF99.0
aF98.01000213623047
aF97.02989959716797
aF96.05960083007812
aF95.09900665283203
aF94.14801788330078
aF93.20653533935547
aF92.27446746826172
aF91.35172271728516
aF90.4382095336914
aF89.53382873535156
aF88.63848876953125
aF87.75210571289062
aF86.87458038330078
aF86.0058364868164
aF85.1457748413086
aF84.29431915283203
aF83.45137786865234
aF82.61685943603516
aF81.79069519042969
aF80.97278594970703
aF80.16305541992188
aF79.3614273071289
aF78.56781768798828
aF77.78213500976562
aF77.00431823730469
aF76.23426818847656
aF75.47193145751953
aF74.71720886230469
aF73.97003936767578
aF73.23033905029297
aF72.49803161621094
aF71.77305603027344
aF71.0553207397461
aF70.34477233886719
aF69.64131927490234
aF68.94490814208984
aF68.25546264648438
aF67.57290649414062
aF66.89717864990234
aF66.22820281982422
aF65.56592559814453
aF64.91026306152344
aF64.26116180419922
aF63.61854934692383
aF62.982364654541016
aF62.3525390625
aF61.7290153503418
aF61.111724853515625
aF60.500606536865234
aF59.895599365234375
aF59.29664611816406
aF58.703678131103516
aF58.116641998291016
aF57.53547668457031
aF56.960121154785156
aF56.39051818847656
aF55.82661437988281
aF55.268348693847656
aF54.71566390991211
aF54.16850662231445
aF53.62682342529297
aF53.090553283691406
aF52.55965042114258
aF52.034053802490234
aF51.513710021972656
aF50.998573303222656
aF50.488590240478516
aF49.98370361328125
aF49.48386764526367
aF48.98902893066406
aF48.49913787841797
aF48.01414489746094
aF47.53400421142578
aF47.05866241455078
aF46.588077545166016
aF46.122196197509766
aF45.66097640991211
aF45.20436477661133
aF44.752323150634766
aF100.0
aF100.0
aF100.0
aF99.0
aF98.01000213623047
aF97.02989959716797
aF96.05960083007812
aF95.09900665283203
aF94.14801788330078
aF93.20653533935547
aF92.27446746826172
aF91.35172271728516
aF90.4382095336914
aF89.53382873535156
aF88.63848876953125
aF87.75210571289062
aF86.87458038330078
aF86.0058364868164
aF85.1457748413086
aF84.29431915283203
aF83.45137786865234
aF82.61685943603516
aF81.79069519042969
aF80.97278594970703
aF80.16305541992188
aF79.3614273071289
aF78.56781768798828
aF77.78213500976562
aF77.00431823730469
aF76.23426818847656
aF75.47193145751953
aF74.71720886230469
aF73.97003936767578
aF73.23033905029297
aF72.49803161621094
aF71.77305603027344
aF71.0553207397461
aF70.34477233886719
aF69.64131927490234
aF68.94490814208984
aF68.25546264648438
aF67.57290649414062
aF66.89717864990234
aF66.22820281982422
aF65.56592559814453
aF64.91026306152344
aF64.26116180419922
aF63.61854934692383
aF62.982364654541016
aF62.3525390625
aF61.7290153503418
aF61.111724853515625
aF60.500606536865234
aF59.895599365234375
aF59.29664611816406
aF58.703678131103516
aF58.116641998291016
aF57.53547668457031
aF56.960121154785156
aF56.39051818847656
aF55.82661437988281
aF55.268348693847656
aF54.71566390991211
aF100.0
aF100.0
aF100.0
aF99.0
aF98.01000213623047
aF97.02989959716797
aF96.05960083007812
aF95.09900665283203
aF94.14801788330078
aF93.20653533935547
aF92.27446746826172
aF91.35172271728516
aF90.4382095336914
aF89.53382873535156
aF88.63848876953125
aF87.75210571289062
aF86.87458038330078
aF86.0058364868164
aF85.1457748413086
aF84.29431915283203
aF83.45137786865234
aF82.61685943603516
aF81.79069519042969
aF80.97278594970703
aF80.16305541992188
aF79.3614273071289
aF78.56781768798828
aF77.78213500976562
aF77.00431823730469
aF76.23426818847656
aF75.47193145751953
aF74.71720886230469
aF73.97003936767578
aF73.23033905029297
aF72.49803161621094
aF71.77305603027344
aF71.0553207397461
aF70.34477233886719
aF69.64131927490234
aF68.94490814208984
aF68.25546264648438
aF67.57290649414062
aF66.89717864990234
aF66.22820281982422
aF65.56592559814453
aF64.91026306152344
aF64.26116180419922
aF63.61854934692383
aF62.982364654541016
aF62.3525390625
aF61.7290153503418
aF61.111724853515625
aF60.500606536865234
aF59.895599365234375
aF59.29664611816406
aF58.703678131103516
aF58.116641998291016
aF57.53547668457031
aF56.960121154785156
aF56.39051818847656
aF55.82661437988281
aF55.268348693847656
aF54.71566390991211
aF54.16850662231445
aF53.62682342529297
aF53.090553283691406
aF52.55965042114258
aF52.034053802490234
aF51.513710021972656
aF50.998573303222656
aF50.488590240478516
aF49.98370361328125
aF49.48386764526367
aF48.98902893066406
aF48.49913787841797
aF48.01414489746094
aF47.53400421142578
aF47.05866241455078
aF46.588077545166016
aF46.122196197509766
aF45.66097640991211
aF45.20436477661133
aF44.752323150634766
aF100.0
aF100.0
aF100.0
aF99.0
aF98.01000213623047
aF97.02989959716797
aF96.05960083007812
aF95.09900665283203
aF94.14801788330078
aF93.20653533935547
aF92.27446746826172
aF91.35172271728516
aF90.4382095336914
aF89.53382873535156
aF88.63848876953125
aF87.75210571289062
aF86.87458038330078
aF86.0058364868164
aF85.1457748413086
aF84.29431915283203
aF83.45137786865234
aF82.61685943603516
aF81.79069519042969
asI3
(lp8
F48.10273742675781
aF47.86222457885742
aF47.6229133605957
aF47.384796142578125
aF47.14787292480469
aF46.91213607788086
aF46.677574157714844
aF46.44418716430664
aF46.21196365356445
aF45.98090362548828
aF45.750999450683594
aF45.522247314453125
aF45.29463577270508
aF45.06816101074219
aF44.84281921386719
aF44.61860656738281
aF44.395511627197266
aF44.17353439331055
aF43.952667236328125
aF43.732906341552734
aF43.51424026489258
aF43.296669006347656
aF43.08018493652344
aF42.864784240722656
aF42.65045928955078
aF42.43721008300781
aF42.22502136230469
aF42.01389694213867
aF41.803829193115234
aF41.594810485839844
aF41.38683319091797
aF41.179901123046875
aF40.9739990234375
aF40.76913070678711
aF40.565284729003906
aF40.362457275390625
aF40.160648345947266
aF39.959842681884766
aF39.76004409790039
aF39.56124496459961
aF39.36343765258789
aF39.166622161865234
aF38.970787048339844
aF38.77593231201172
aF38.582054138183594
aF38.38914489746094
aF38.19719696044922
aF38.00621032714844
aF37.81618118286133
aF37.627098083496094
aF37.43896484375
aF37.25177001953125
aF37.06550979614258
aF36.880184173583984
aF36.69578170776367
aF36.51230239868164
aF36.329742431640625
aF36.148094177246094
aF35.96735382080078
aF35.78751754760742
aF35.608577728271484
aF35.43053436279297
aF35.25338363647461
aF35.07711410522461
aF34.901729583740234
aF34.72722244262695
aF34.553585052490234
aF34.38081741333008
aF34.20891189575195
aF34.03786849975586
aF33.867679595947266
aF33.698341369628906
aF33.529850006103516
aF33.36220169067383
aF33.19538879394531
aF33.02941131591797
aF32.86426544189453
aF32.69994354248047
aF32.53644561767578
aF32.37376022338867
aF32.211891174316406
aF32.05083465576172
aF31.890579223632812
aF31.73112678527832
aF31.572471618652344
aF31.414608001708984
aF31.257535934448242
aF31.101247787475586
aF30.945741653442383
aF30.791013717651367
aF30.63705825805664
aF30.48387336730957
aF30.331453323364258
aF30.17979621887207
aF30.02889633178711
aF29.878751754760742
aF29.729358673095703
aF29.580711364746094
aF29.43280792236328
aF29.28564453125
aF29.13921546936035
aF28.993520736694336
aF28.848552703857422
aF28.704309463500977
aF28.560787200927734
aF28.417984008789062
aF28.275894165039062
aF28.13451385498047
aF27.99384307861328
aF27.853872299194336
aF27.714603424072266
aF27.576030731201172
aF27.43815040588379
aF27.300960540771484
aF27.16445541381836
aF27.02863311767578
aF26.893489837646484
aF26.759021759033203
aF26.625226974487305
aF26.492101669311523
aF26.35964012145996
aF26.227842330932617
aF26.096702575683594
aF25.966218948364258
aF25.836387634277344
aF25.70720672607422
aF25.578670501708984
aF25.450777053833008
aF25.323522567749023
aF25.1969051361084
aF25.070920944213867
aF24.945566177368164
aF24.820838928222656
aF24.696733474731445
aF24.57324981689453
aF24.45038414001465
aF24.32813262939453
aF24.206491470336914
aF24.085458755493164
aF23.96503257751465
aF23.84520721435547
aF23.725980758666992
aF23.607351303100586
aF23.489315032958984
aF23.371868133544922
aF23.255008697509766
aF23.13873291015625
aF23.023038864135742
aF22.90792465209961
aF22.793384552001953
aF22.679418563842773
aF22.566020965576172
aF100.0
aF100.0
aF100.0
aF99.5
aF99.00250244140625
aF98.50748443603516
aF98.01495361328125
aF97.52487182617188
aF97.0372543334961
aF96.55206298828125
aF96.06930541992188
aF95.58895874023438
aF95.11101531982422
aF94.63545989990234
aF94.16227722167969
aF93.69146728515625
aF93.22301483154297
aF92.75689697265625
aF92.2931137084961
aF91.83164978027344
aF91.37248992919922
aF90.9156265258789
aF90.46104431152344
aF90.00874328613281
aF89.55870056152344
aF89.11090850830078
aF88.66535186767578
aF88.2220230102539
aF87.78091430664062
aF87.34201049804688
aF86.9052963256836
aF86.47077178955078
aF86.03842163085938
aF85.60823059082031
aF85.18018341064453
aF84.75428771972656
aF84.33051300048828
aF83.90885925292969
aF83.48931884765625
aF83.07186889648438
aF82.65650939941406
aF82.24322509765625
aF81.8320083618164
aF81.4228515625
aF81.01573944091797
aF80.61065673828125
aF80.20760345458984
aF79.80656433105469
aF79.40753173828125
aF79.010498046875
aF78.61544799804688
aF78.22236633300781
aF77.83125305175781
aF77.44210052490234
aF77.05488586425781
aF76.66961669921875
aF76.28627014160156
aF75.90483856201172
aF75.52531433105469
aF75.1476821899414
aF74.77194213867188
aF74.39808654785156
aF74.02609252929688
aF73.65596771240234
aF73.28768920898438
aF72.92124938964844
aF72.556640625
aF72.19385528564453
aF71.8328857421875
aF71.47372436523438
aF71.1163558959961
aF70.76077270507812
aF70.40696716308594
aF70.054931640625
aF69.70465850830078
aF69.35614013671875
aF69.00935363769531
aF68.664306640625
aF68.32099151611328
aF67.97938537597656
aF67.63948822021484
aF67.30128479003906
aF66.96478271484375
aF66.62995910644531
aF66.29680633544922
aF65.96532440185547
aF65.635498046875
aF65.30731964111328
aF64.98078155517578
aF64.65587615966797
aF64.33260345458984
aF64.01094055175781
aF63.69088363647461
aF63.37242889404297
aF63.055564880371094
aF62.74028778076172
aF62.42658615112305
aF62.11445236206055
aF61.80388259887695
aF61.4948616027832
aF61.1873893737793
aF60.88145065307617
aF60.57704544067383
aF60.2741584777832
aF59.97278594970703
aF59.67292404174805
aF59.37455749511719
aF59.07768630981445
aF58.78229904174805
aF58.48838806152344
aF58.195945739746094
aF57.904964447021484
aF57.615440368652344
aF57.327362060546875
aF57.04072570800781
aF56.755523681640625
aF56.471744537353516
aF56.18938446044922
aF55.90843963623047
aF55.62889862060547
aF55.35075378417969
aF55.073997497558594
aF54.79862976074219
aF54.524635314941406
aF54.252010345458984
aF53.980751037597656
aF53.71084976196289
aF53.44229507446289
aF53.17508316040039
aF52.90920639038086
aF52.64466094970703
aF52.381439208984375
aF52.119529724121094
aF51.85893249511719
aF51.599639892578125
aF51.34164047241211
aF51.084930419921875
aF50.829505920410156
aF50.57535934448242
aF50.32248306274414
aF50.07086944580078
aF49.82051467895508
aF49.571414947509766
aF49.32355499267578
aF49.07693862915039
aF48.8315544128418
aF48.58739471435547
aF48.344459533691406
aF48.10273742675781
aF47.86222457885742
aF47.6229133605957
aF47.384796142578125
aF47.14787292480469
aF46.91213607788086
aF46.677574157714844
aF46.44418716430664
aF46.21196365356445
aF45.98090362548828
aF45.750999450683594
aF45.522247314453125
aF45.29463577270508
aF45.06816101074219
aF44.84281921386719
aF44.61860656738281
aF44.395511627197266
aF44.17353439331055
aF43.952667236328125
aF43.732906341552734
aF43.51424026489258
aF43.296669006347656
aF43.08018493652344
aF42.864784240722656
aF42.65045928955078
aF42.43721008300781
aF42.22502136230469
aF42.01389694213867
aF100.0
aF100.0
aF100.0
aF99.5
aF99.00250244140625
aF98.50748443603516
aF98.01495361328125
aF97.52487182617188
aF97.0372543334961
aF96.55206298828125
aF96.06930541992188
aF95.58895874023438
aF95.11101531982422
aF94.63545989990234
aF94.16227722167969
aF93.69146728515625
aF93.22301483154297
aF92.75689697265625
aF92.2931137084961
aF91.83164978027344
aF91.37248992919922
aF90.9156265258789
aF90.46104431152344
aF90.00874328613281
aF89.55870056152344
aF89.11090850830078
aF88.66535186767578
aF88.2220230102539
aF87.78091430664062
aF87.34201049804688
aF86.9052963256836
aF86.47077178955078
aF86.03842163085938
aF85.60823059082031
aF85.18018341064453
aF84.75428771972656
aF84.33051300048828
aF83.90885925292969
aF83.48931884765625
aF83.07186889648438
aF82.65650939941406
aF82.24322509765625
aF81.8320083618164
aF81.4228515625
aF81.01573944091797
aF80.61065673828125
aF80.20760345458984
aF79.80656433105469
aF79.40753173828125
aF79.010498046875
aF78.61544799804688
aF78.22236633300781
aF77.83125305175781
aF77.44210052490234
aF77.05488586425781
aF76.66961669921875
aF76.28627014160156
aF75.90483856201172
aF75.52531433105469
aF75.1476821899414
aF74.77194213867188
aF74.39808654785156
aF74.02609252929688
aF73.65596771240234
aF73.28768920898438
aF72.92124938964844
aF72.556640625
aF72.19385528564453
aF71.8328857421875
aF71.47372436523438
aF71.1163558959961
aF70.76077270507812
aF70.40696716308594
aF70.054931640625
aF69.70465850830078
aF69.35614013671875
aF69.00935363769531
aF68.664306640625
aF68.32099151611328
aF67.97938537597656
aF67.63948822021484
aF67.30128479003906
aF66.96478271484375
aF66.62995910644531
aF66.29680633544922
aF65.96532440185547
aF65.635498046875
aF65.30731964111328
aF64.98078155517578
aF64.65587615966797
aF64.33260345458984
aF64.01094055175781
aF63.69088363647461
aF63.37242889404297
aF63.055564880371094
aF62.74028778076172
aF62.42658615112305
aF62.11445236206055
aF61.80388259887695
aF61.4948616027832
aF61.1873893737793
aF60.88145065307617
aF60.57704544067383
aF60.2741584777832
aF59.97278594970703
aF59.67292404174805
aF59.37455749511719
aF59.07768630981445
aF58.78229904174805
aF58.48838806152344
aF58.195945739746094
aF57.904964447021484
aF57.615440368652344
aF57.327362060546875
aF57.04072570800781
aF56.755523681640625
aF56.471744537353516
aF56.18938446044922
aF55.90843963623047
aF55.62889862060547
aF55.35075378417969
aF55.073997497558594
aF54.79862976074219
aF54.524635314941406
aF54.252010345458984
aF53.980751037597656
aF53.71084976196289
aF53.44229507446289
aF53.17508316040039
aF52.90920639038086
aF52.64466094970703
aF52.381439208984375
aF52.119529724121094
aF51.85893249511719
aF51.599639892578125
aF51.34164047241211
aF51.084930419921875
aF50.829505920410156
aF50.57535934448242
aF50.32248306274414
aF50.07086944580078
aF49.82051467895508
aF49.571414947509766
aF49.32355499267578
aF49.07693862915039
aF48.8315544128418
aF48.58739471435547
aF100.0
aF100.0
aF100.0
aF99.5
aF99.00250244140625
aF98.50748443603516
aF98.01495361328125
aF97.52487182617188
aF97.0372543334961
aF96.55206298828125
aF96.06930541992188
aF95.58895874023438
aF95.11101531982422
aF94.63545989990234
aF94.16227722167969
aF93.69146728515625
aF93.22301483154297
aF92.75689697265625
aF92.2931137084961
aF91.83164978027344
aF91.37248992919922
aF90.9156265258789
aF90.46104431152344
aF90.00874328613281
aF89.55870056152344
aF89.11090850830078
aF88.66535186767578
aF88.2220230102539
aF87.78091430664062
aF87.34201049804688
aF86.9052963256836
aF86.47077178955078
aF86.03842163085938
aF85.60823059082031
aF85.18018341064453
aF84.75428771972656
aF84.33051300048828
aF83.90885925292969
aF83.48931884765625
aF83.07186889648438
aF82.65650939941406
aF82.24322509765625
aF81.8320083618164
aF81.4228515625
aF81.01573944091797
aF80.61065673828125
aF80.20760345458984
aF79.80656433105469
aF79.40753173828125
aF79.010498046875
aF78.61544799804688
aF78.22236633300781
aF77.83125305175781
aF77.44210052490234
aF77.05488586425781
aF76.66961669921875
aF76.28627014160156
aF75.90483856201172
aF75.52531433105469
aF75.1476821899414
aF74.77194213867188
aF74.39808654785156
aF74.02609252929688
aF73.65596771240234
aF73.28768920898438
aF72.92124938964844
aF72.556640625
aF72.19385528564453
aF71.8328857421875
aF71.47372436523438
aF71.1163558959961
aF70.76077270507812
aF70.40696716308594
aF70.054931640625
aF69.70465850830078
aF69.35614013671875
aF69.00935363769531
aF68.664306640625
aF68.32099151611328
aF67.97938537597656
aF67.63948822021484
aF67.30128479003906
aF66.96478271484375
aF66.62995910644531
aF66.29680633544922
aF65.96532440185547
aF65.635498046875
aF65.30731964111328
aF64.98078155517578
aF64.65587615966797
aF64.33260345458984
aF64.01094055175781
aF63.69088363647461
aF63.37242889404297
aF63.055564880371094
aF62.74028778076172
aF62.42658615112305
aF62.11445236206055
aF61.80388259887695
aF61.4948616027832
aF61.1873893737793
aF60.88145065307617
aF60.57704544067383
aF60.2741584777832
aF59.97278594970703
aF59.67292404174805
aF59.37455749511719
aF59.07768630981445
aF58.78229904174805
aF58.48838806152344
aF58.195945739746094
aF57.904964447021484
aF57.615440368652344
aF57.327362060546875
aF57.04072570800781
aF56.755523681640625
aF56.471744537353516
aF56.18938446044922
aF55.90843963623047
aF55.62889862060547
aF55.35075378417969
aF55.073997497558594
aF54.79862976074219
aF54.524635314941406
aF54.252010345458984
aF53.980751037597656
aF53.71084976196289
aF53.44229507446289
aF53.17508316040039
aF52.90920639038086
aF52.64466094970703
aF52.381439208984375
aF52.119529724121094
aF51.85893249511719
aF51.599639892578125
aF51.34164047241211
aF51.084930419921875
aF50.829505920410156
aF50.57535934448242
aF50.32248306274414
aF50.07086944580078
aF49.82051467895508
aF49.571414947509766
aF49.32355499267578
aF49.07693862915039
aF48.8315544128418
aF100.0
aF100.0
aF100.0
aF99.5
aF99.00250244140625
aF98.50748443603516
aF98.01495361328125
aF97.52487182617188
aF97.0372543334961
aF96.55206298828125
aF96.06930541992188
aF95.58895874023438
aF95.11101531982422
aF94.63545989990234
aF94.16227722167969
aF93.69146728515625
aF93.22301483154297
aF92.75689697265625
aF92.2931137084961
aF91.83164978027344
aF91.37248992919922
aF90.9156265258789
aF90.46104431152344
aF90.00874328613281
aF89.55870056152344
aF89.11090850830078
aF88.66535186767578
aF88.2220230102539
aF87.78091430664062
aF87.34201049804688
aF86.9052963256836
aF86.47077178955078
aF86.03842163085938
aF85.60823059082031
aF85.18018341064453
aF84.75428771972656
aF84.33051300048828
aF83.90885925292969
aF83.48931884765625
aF83.07186889648438
aF82.65650939941406
aF82.24322509765625
aF81.8320083618164
aF81.4228515625
aF81.01573944091797
aF80.61065673828125
aF80.20760345458984
aF79.80656433105469
aF79.40753173828125
aF79.010498046875
aF78.61544799804688
aF78.22236633300781
aF77.83125305175781
aF77.44210052490234
aF77.05488586425781
aF76.66961669921875
aF76.28627014160156
aF75.90483856201172
aF75.52531433105469
aF75.1476821899414
aF74.77194213867188
aF74.39808654785156
aF74.02609252929688
aF73.65596771240234
aF73.28768920898438
aF72.92124938964844
aF72.556640625
aF72.19385528564453
aF71.8328857421875
aF71.47372436523438
aF71.1163558959961
aF70.76077270507812
aF70.40696716308594
aF70.054931640625
aF69.70465850830078
aF69.35614013671875
aF69.00935363769531
aF68.664306640625
aF68.32099151611328
aF67.97938537597656
aF67.63948822021484
aF67.30128479003906
aF66.96478271484375
aF66.62995910644531
aF66.29680633544922
aF65.96532440185547
aF65.635498046875
aF65.30731964111328
aF64.98078155517578
aF64.65587615966797
aF64.33260345458984
aF64.01094055175781
aF63.69088363647461
aF63.37242889404297
aF63.055564880371094
aF62.74028778076172
aF62.42658615112305
aF62.11445236206055
aF61.80388259887695
aF61.4948616027832
aF61.1873893737793
aF60.88145065307617
aF60.57704544067383
aF60.2741584777832
aF59.97278594970703
aF59.67292404174805
aF59.37455749511719
aF59.07768630981445
aF58.78229904174805
aF58.48838806152344
aF58.195945739746094
aF57.904964447021484
aF57.615440368652344
aF57.327362060546875
aF57.04072570800781
aF56.755523681640625
aF56.471744537353516
aF56.18938446044922
aF55.90843963623047
aF55.62889862060547
aF55.35075378417969
aF55.073997497558594
aF54.79862976074219
aF54.524635314941406
aF54.252010345458984
aF53.980751037597656
aF53.71084976196289
aF53.44229507446289
aF53.17508316040039
aF52.90920639038086
aF52.64466094970703
aF52.381439208984375
aF52.119529724121094
aF51.85893249511719
aF51.599639892578125
aF51.34164047241211
aF51.084930419921875
aF50.829505920410156
aF50.57535934448242
aF50.32248306274414
aF50.07086944580078
aF49.82051467895508
aF49.571414947509766
aF49.32355499267578
aF49.07693862915039
aF48.8315544128418
aF48.58739471435547
aF100.0
aF100.0
aF100.0
aF99.5
aF99.00250244140625
aF98.50748443603516
aF98.01495361328125
aF97.52487182617188
aF97.0372543334961
aF96.55206298828125
aF96.06930541992188
aF95.58895874023438
aF95.11101531982422
aF94.63545989990234
aF94.16227722167969
aF93.69146728515625
aF93.22301483154297
aF92.75689697265625
aF92.2931137084961
aF91.83164978027344
aF91.37248992919922
aF90.9156265258789
aF90.46104431152344
aF90.00874328613281
aF89.55870056152344
aF89.11090850830078
aF88.66535186767578
aF88.2220230102539
aF87.78091430664062
aF87.34201049804688
aF86.9052963256836
aF86.47077178955078
aF86.03842163085938
aF85.60823059082031
aF85.18018341064453
aF84.75428771972656
aF84.33051300048828
aF83.90885925292969
aF83.48931884765625
aF83.07186889648438
aF82.65650939941406
aF82.24322509765625
aF81.8320083618164
aF81.4228515625
aF81.01573944091797
aF80.61065673828125
aF80.20760345458984
aF79.80656433105469
aF79.40753173828125
aF79.010498046875
aF78.61544799804688
aF78.22236633300781
aF77.83125305175781
aF77.44210052490234
aF77.05488586425781
aF76.66961669921875
aF76.28627014160156
aF75.90483856201172
aF75.52531433105469
aF75.1476821899414
aF74.77194213867188
aF74.39808654785156
aF74.02609252929688
aF73.65596771240234
aF73.28768920898438
aF72.92124938964844
aF72.556640625
aF72.19385528564453
aF71.8328857421875
aF71.47372436523438
aF71.1163558959961
aF70.76077270507812
aF70.40696716308594
aF70.054931640625
aF69.70465850830078
aF69.35614013671875
aF69.00935363769531
aF68.664306640625
aF68.32099151611328
aF67.97938537597656
aF67.63948822021484
aF67.30128479003906
aF66.96478271484375
aF66.62995910644531
aF66.29680633544922
aF65.96532440185547
aF65.635498046875
aF65.30731964111328
aF64.98078155517578
aF64.65587615966797
aF64.33260345458984
aF64.01094055175781
aF63.69088363647461
aF63.37242889404297
aF63.055564880371094
aF62.74028778076172
aF62.42658615112305
aF62.11445236206055
aF61.80388259887695
aF61.4948616027832
aF61.1873893737793
aF60.88145065307617
aF60.57704544067383
aF60.2741584777832
aF59.97278594970703
aF59.67292404174805
aF59.37455749511719
aF59.07768630981445
aF58.78229904174805
aF58.48838806152344
aF58.195945739746094
aF57.904964447021484
aF57.615440368652344
aF57.327362060546875
aF57.04072570800781
aF56.755523681640625
aF56.471744537353516
aF56.18938446044922
aF55.90843963623047
aF55.62889862060547
aF55.35075378417969
aF55.073997497558594
aF54.79862976074219
aF54.524635314941406
aF54.252010345458984
aF53.980751037597656
aF53.71084976196289
aF53.44229507446289
aF53.17508316040039
aF52.90920639038086
aF52.64466094970703
aF52.381439208984375
aF52.119529724121094
aF51.85893249511719
aF51.599639892578125
aF51.34164047241211
aF51.084930419921875
aF50.829505920410156
aF50.57535934448242
aF50.32248306274414
aF50.07086944580078
aF49.82051467895508
aF49.571414947509766
aF49.32355499267578
aF49.07693862915039
aF48.8315544128418
aF100.0
aF100.0
aF100.0
aF99.5
aF99.00250244140625
aF98.50748443603516
aF98.01495361328125
aF97.52487182617188
aF97.0372543334961
aF96.55206298828125
aF96.06930541992188
aF95.58895874023438
aF95.11101531982422
aF94.63545989990234
aF94.16227722167969
aF93.69146728515625
aF93.22301483154297
aF92.75689697265625
aF92.2931137084961
aF91.83164978027344
aF91.37248992919922
aF90.9156265258789
aF90.46104431152344
aF90.00874328613281
aF89.55870056152344
aF89.11090850830078
aF88.66535186767578
aF88.2220230102539
aF87.78091430664062
aF87.34201049804688
aF86.9052963256836
aF86.47077178955078
aF86.03842163085938
aF85.60823059082031
aF85.18018341064453
aF84.75428771972656
aF84.33051300048828
aF83.90885925292969
aF83.48931884765625
aF83.07186889648438
aF82.65650939941406
aF82.24322509765625
aF81.8320083618164
aF81.4228515625
aF81.01573944091797
aF80.61065673828125
aF80.20760345458984
aF79.80656433105469
aF79.40753173828125
aF79.010498046875
aF78.61544799804688
aF78.22236633300781
aF77.83125305175781
aF77.44210052490234
aF77.05488586425781
aF76.66961669921875
aF76.28627014160156
aF75.90483856201172
aF75.52531433105469
aF75.1476821899414
aF74.77194213867188
aF74.39808654785156
aF74.02609252929688
aF73.65596771240234
aF73.28768920898438
aF72.92124938964844
aF72.556640625
aF72.19385528564453
aF71.8328857421875
aF71.47372436523438
aF71.1163558959961
aF70.76077270507812
aF70.40696716308594
aF70.054931640625
aF69.70465850830078
aF69.35614013671875
aF69.00935363769531
aF68.664306640625
aF68.32099151611328
aF67.97938537597656
aF67.63948822021484
aF67.30128479003906
aF66.96478271484375
aF66.62995910644531
aF66.29680633544922
aF65.96532440185547
aF65.635498046875
aF65.30731964111328
aF64.98078155517578
aF64.65587615966797
aF64.33260345458984
aF64.01094055175781
aF63.69088363647461
aF63.37242889404297
aF63.055564880371094
aF62.74028778076172
aF62.42658615112305
aF62.11445236206055
aF61.80388259887695
aF61.4948616027832
aF61.1873893737793
aF60.88145065307617
aF60.57704544067383
aF60.2741584777832
aF59.97278594970703
aF59.67292404174805
aF59.37455749511719
aF59.07768630981445
aF58.78229904174805
aF58.48838806152344
aF58.195945739746094
aF57.904964447021484
aF57.615440368652344
aF57.327362060546875
aF57.04072570800781
aF56.755523681640625
aF56.471744537353516
aF56.18938446044922
aF55.90843963623047
aF55.62889862060547
aF55.35075378417969
aF55.073997497558594
aF54.79862976074219
aF54.524635314941406
aF54.252010345458984
aF53.980751037597656
aF53.71084976196289
aF53.44229507446289
aF53.17508316040039
aF52.90920639038086
aF52.64466094970703
aF52.381439208984375
aF52.119529724121094
aF51.85893249511719
aF51.599639892578125
aF51.34164047241211
aF51.084930419921875
aF50.829505920410156
aF50.57535934448242
aF50.32248306274414
aF50.07086944580078
aF49.82051467895508
aF49.571414947509766
aF49.32355499267578
aF49.07693862915039
aF100.0
aF100.0
aF100.0
aF99.5
aF99.00250244140625
aF98.50748443603516
aF98.01495361328125
aF97.52487182617188
aF97.0372543334961
aF96.55206298828125
aF96.06930541992188
aF95.58895874023438
aF95.11101531982422
aF94.63545989990234
aF94.16227722167969
aF93.69146728515625
aF93.22301483154297
aF92.75689697265625
aF92.2931137084961
aF91.83164978027344
aF91.37248992919922
aF90.9156265258789
aF90.46104431152344
aF90.00874328613281
aF89.55870056152344
aF89.11090850830078
aF88.66535186767578
aF88.2220230102539
aF87.78091430664062
aF87.34201049804688
aF86.9052963256836
aF86.47077178955078
aF86.03842163085938
aF85.60823059082031
aF85.18018341064453
aF84.75428771972656
aF84.33051300048828
aF83.90885925292969
aF83.48931884765625
aF83.07186889648438
aF82.65650939941406
aF82.24322509765625
aF81.8320083618164
aF81.4228515625
aF81.01573944091797
aF80.61065673828125
aF80.20760345458984
aF79.80656433105469
aF79.40753173828125
aF79.010498046875
aF78.61544799804688
aF78.22236633300781
aF77.83125305175781
aF77.44210052490234
aF77.05488586425781
aF76.66961669921875
aF76.28627014160156
aF75.90483856201172
aF75.52531433105469
aF75.1476821899414
aF74.77194213867188
aF74.39808654785156
aF74.02609252929688
aF73.65596771240234
aF73.28768920898438
aF72.92124938964844
aF72.556640625
aF72.19385528564453
aF71.8328857421875
aF71.47372436523438
aF71.1163558959961
aF70.76077270507812
aF70.40696716308594
aF70.054931640625
aF69.70465850830078
aF69.35614013671875
aF69.00935363769531
aF68.664306640625
aF68.32099151611328
aF67.97938537597656
aF67.63948822021484
aF67.30128479003906
aF66.96478271484375
aF66.62995910644531
aF66.29680633544922
aF65.96532440185547
aF65.635498046875
aF65.30731964111328
aF64.98078155517578
aF64.65587615966797
aF64.33260345458984
aF64.01094055175781
aF63.69088363647461
aF63.37242889404297
aF63.055564880371094
aF62.74028778076172
aF62.42658615112305
aF62.11445236206055
aF61.80388259887695
aF61.4948616027832
aF61.1873893737793
aF60.88145065307617
aF60.57704544067383
aF60.2741584777832
aF59.97278594970703
aF59.67292404174805
aF59.37455749511719
aF59.07768630981445
aF58.78229904174805
aF58.48838806152344
aF58.195945739746094
aF57.904964447021484
aF57.615440368652344
aF57.327362060546875
aF57.04072570800781
aF56.755523681640625
aF56.471744537353516
aF56.18938446044922
aF55.90843963623047
aF55.62889862060547
aF55.35075378417969
aF55.073997497558594
aF54.79862976074219
aF54.524635314941406
aF54.252010345458984
aF53.980751037597656
aF53.71084976196289
aF53.44229507446289
aF53.17508316040039
aF52.90920639038086
aF52.64466094970703
aF52.381439208984375
aF52.119529724121094
aF51.85893249511719
aF51.599639892578125
aF51.34164047241211
aF51.084930419921875
aF50.829505920410156
aF50.57535934448242
aF50.32248306274414
aF50.07086944580078
aF49.82051467895508
aF49.571414947509766
aF49.32355499267578
aF49.07693862915039
aF48.8315544128418
aF100.0
aF100.0
aF100.0
aF99.5
aF99.00250244140625
aF98.50748443603516
aF98.01495361328125
aF97.52487182617188
aF97.0372543334961
aF96.55206298828125
aF96.06930541992188
aF95.58895874023438
aF95.11101531982422
aF94.63545989990234
aF94.16227722167969
aF93.69146728515625
aF93.22301483154297
aF92.75689697265625
aF92.2931137084961
aF91.83164978027344
aF91.37248992919922
aF90.9156265258789
aF90.46104431152344
aF90.00874328613281
aF89.55870056152344
aF89.11090850830078
aF88.66535186767578
aF88.2220230102539
aF87.78091430664062
aF87.34201049804688
aF86.9052963256836
aF86.47077178955078
aF86.03842163085938
aF85.60823059082031
aF85.18018341064453
aF84.75428771972656
aF84.33051300048828
aF83.90885925292969
aF83.48931884765625
aF83.07186889648438
aF82.65650939941406
aF82.24322509765625
aF81.8320083618164
aF81.4228515625
aF81.01573944091797
aF80.61065673828125
aF80.20760345458984
aF79.80656433105469
aF79.40753173828125
aF79.010498046875
aF78.61544799804688
aF78.22236633300781
aF77.83125305175781
aF77.44210052490234
aF77.05488586425781
aF76.66961669921875
aF76.28627014160156
aF75.90483856201172
aF75.52531433105469
aF75.1476821899414
aF74.77194213867188
aF74.39808654785156
aF74.02609252929688
aF73.65596771240234
aF73.28768920898438
aF72.92124938964844
aF72.556640625
aF72.19385528564453
aF71.8328857421875
aF71.47372436523438
aF71.1163558959961
aF70.76077270507812
aF70.40696716308594
aF70.054931640625
aF69.70465850830078
aF69.35614013671875
aF69.00935363769531
aF68.664306640625
aF68.32099151611328
aF67.97938537597656
aF67.63948822021484
aF67.30128479003906
aF66.96478271484375
aF66.62995910644531
aF66.29680633544922
aF65.96532440185547
aF65.635498046875
aF65.30731964111328
aF64.98078155517578
aF64.65587615966797
aF64.33260345458984
aF64.01094055175781
aF63.69088363647461
aF63.37242889404297
aF63.055564880371094
aF62.74028778076172
aF62.42658615112305
aF62.11445236206055
aF61.80388259887695
aF61.4948616027832
aF61.1873893737793
aF60.88145065307617
aF60.57704544067383
aF60.2741584777832
aF59.97278594970703
aF59.67292404174805
aF59.37455749511719
aF59.07768630981445
aF58.78229904174805
aF58.48838806152344
aF58.195945739746094
aF57.904964447021484
aF57.615440368652344
aF57.327362060546875
aF57.04072570800781
aF56.755523681640625
aF56.471744537353516
aF56.18938446044922
aF55.90843963623047
aF55.62889862060547
aF55.35075378417969
aF55.073997497558594
aF54.79862976074219
aF54.524635314941406
aF54.252010345458984
aF53.980751037597656
aF53.71084976196289
aF53.44229507446289
aF53.17508316040039
aF52.90920639038086
aF52.64466094970703
aF52.381439208984375
aF52.119529724121094
aF51.85893249511719
aF51.599639892578125
aF51.34164047241211
aF51.084930419921875
aF50.829505920410156
aF50.57535934448242
aF50.32248306274414
aF50.07086944580078
aF49.82051467895508
aF49.571414947509766
aF49.32355499267578
aF49.07693862915039
aF48.8315544128418
aF100.0
aF100.0
aF100.0
aF99.5
aF99.00250244140625
aF98.50748443603516
aF98.01495361328125
aF97.52487182617188
aF97.0372543334961
aF96.55206298828125
aF96.06930541992188
aF95.58895874023438
aF95.11101531982422
aF94.63545989990234
aF94.16227722167969
aF93.69146728515625
aF93.22301483154297
aF92.75689697265625
aF92.2931137084961
aF91.83164978027344
aF91.37248992919922
aF90.9156265258789
aF90.46104431152344
aF90.00874328613281
aF89.55870056152344
aF89.11090850830078
aF88.66535186767578
aF88.2220230102539
aF87.78091430664062
aF87.34201049804688
aF86.9052963256836
aF86.47077178955078
aF86.03842163085938
aF85.60823059082031
aF85.18018341064453
aF84.75428771972656
aF84.33051300048828
aF83.90885925292969
aF83.48931884765625
aF83.07186889648438
aF82.65650939941406
aF82.24322509765625
aF81.8320083618164
aF81.4228515625
aF81.01573944091797
aF80.61065673828125
aF80.20760345458984
aF79.80656433105469
aF79.40753173828125
aF79.010498046875
aF78.61544799804688
aF78.22236633300781
aF77.83125305175781
aF77.44210052490234
aF77.05488586425781
aF76.66961669921875
aF76.28627014160156
aF75.90483856201172
aF75.52531433105469
aF75.1476821899414
aF74.77194213867188
aF74.39808654785156
aF74.02609252929688
aF73.65596771240234
aF73.28768920898438
aF72.92124938964844
aF72.556640625
aF72.19385528564453
aF71.8328857421875
aF71.47372436523438
aF71.1163558959961
aF70.76077270507812
aF70.40696716308594
aF70.054931640625
aF69.70465850830078
aF69.35614013671875
aF69.00935363769531
aF68.664306640625
aF68.32099151611328
aF67.97938537597656
aF67.63948822021484
aF67.30128479003906
aF66.96478271484375
aF66.62995910644531
aF66.29680633544922
aF65.96532440185547
aF65.635498046875
aF65.30731964111328
aF64.98078155517578
aF64.65587615966797
aF64.33260345458984
aF64.01094055175781
aF63.69088363647461
aF63.37242889404297
aF63.055564880371094
aF62.74028778076172
aF62.42658615112305
aF62.11445236206055
aF61.80388259887695
aF61.4948616027832
aF61.1873893737793
aF60.88145065307617
aF60.57704544067383
aF60.2741584777832
aF59.97278594970703
aF59.67292404174805
aF59.37455749511719
aF59.07768630981445
aF58.78229904174805
aF58.48838806152344
aF58.195945739746094
aF57.904964447021484
aF57.615440368652344
aF57.327362060546875
aF57.04072570800781
aF56.755523681640625
aF56.471744537353516
aF56.18938446044922
aF55.90843963623047
aF55.62889862060547
aF55.35075378417969
aF55.073997497558594
aF54.79862976074219
aF54.524635314941406
aF54.252010345458984
aF53.980751037597656
aF53.71084976196289
aF53.44229507446289
aF53.17508316040039
aF52.90920639038086
aF52.64466094970703
aF52.381439208984375
aF52.119529724121094
aF51.85893249511719
aF51.599639892578125
aF51.34164047241211
aF51.084930419921875
aF50.829505920410156
aF50.57535934448242
aF50.32248306274414
aF50.07086944580078
aF49.82051467895508
aF49.571414947509766
aF49.32355499267578
aF49.07693862915039
aF48.8315544128418
aF48.58739471435547
aF100.0
aF100.0
aF100.0
aF99.5
aF99.00250244140625
aF98.50748443603516
aF98.01495361328125
aF97.52487182617188
aF97.0372543334961
aF96.55206298828125
aF96.06930541992188
aF95.58895874023438
aF95.11101531982422
aF94.63545989990234
aF94.16227722167969
aF93.69146728515625
aF93.22301483154297
aF92.75689697265625
aF92.2931137084961
aF91.83164978027344
aF91.37248992919922
aF90.9156265258789
aF90.46104431152344
aF90.00874328613281
aF89.55870056152344
aF89.11090850830078
aF88.66535186767578
aF88.2220230102539
aF87.78091430664062
aF87.34201049804688
aF86.9052963256836
aF86.47077178955078
aF86.03842163085938
aF85.60823059082031
aF85.18018341064453
aF84.75428771972656
aF84.33051300048828
aF83.90885925292969
aF83.48931884765625
aF83.07186889648438
aF82.65650939941406
aF82.24322509765625
aF81.8320083618164
aF81.4228515625
aF81.01573944091797
aF80.61065673828125
aF80.20760345458984
aF79.80656433105469
aF79.40753173828125
aF79.010498046875
aF78.61544799804688
aF78.22236633300781
aF77.83125305175781
aF77.44210052490234
aF77.05488586425781
aF76.66961669921875
aF76.28627014160156
aF75.90483856201172
aF75.52531433105469
aF75.1476821899414
aF74.77194213867188
aF74.39808654785156
aF74.02609252929688
aF73.65596771240234
aF73.28768920898438
aF72.92124938964844
aF72.556640625
aF72.19385528564453
aF71.8328857421875
aF71.47372436523438
aF71.1163558959961
aF70.76077270507812
aF70.40696716308594
aF70.054931640625
aF69.70465850830078
aF69.35614013671875
aF69.00935363769531
aF68.664306640625
aF68.32099151611328
aF67.97938537597656
aF67.63948822021484
aF67.30128479003906
aF66.96478271484375
aF66.62995910644531
aF66.29680633544922
aF65.96532440185547
aF65.635498046875
aF65.30731964111328
aF64.98078155517578
aF64.65587615966797
aF64.33260345458984
aF64.01094055175781
aF63.69088363647461
aF63.37242889404297
aF63.055564880371094
aF62.74028778076172
aF62.42658615112305
aF62.11445236206055
aF61.80388259887695
aF61.4948616027832
aF61.1873893737793
aF60.88145065307617
aF60.57704544067383
aF60.2741584777832
aF59.97278594970703
aF59.67292404174805
aF59.37455749511719
aF59.07768630981445
aF58.78229904174805
aF58.48838806152344
aF58.195945739746094
aF57.904964447021484
aF57.615440368652344
aF57.327362060546875
aF57.04072570800781
aF56.755523681640625
aF56.471744537353516
aF56.18938446044922
aF55.90843963623047
aF55.62889862060547
aF55.35075378417969
aF55.073997497558594
aF54.79862976074219
aF54.524635314941406
aF54.252010345458984
aF53.980751037597656
aF53.71084976196289
aF53.44229507446289
aF53.17508316040039
aF52.90920639038086
aF52.64466094970703
aF52.381439208984375
aF52.119529724121094
aF51.85893249511719
aF51.599639892578125
aF51.34164047241211
aF51.084930419921875
aF50.829505920410156
aF50.57535934448242
aF50.32248306274414
aF50.07086944580078
aF49.82051467895508
aF49.571414947509766
aF49.32355499267578
aF49.07693862915039
aF48.8315544128418
aF100.0
aF100.0
aF100.0
aF99.5
aF99.00250244140625
aF98.50748443603516
aF98.01495361328125
aF97.52487182617188
aF97.0372543334961
aF96.55206298828125
aF96.06930541992188
aF95.58895874023438
aF95.11101531982422
aF94.63545989990234
aF94.16227722167969
aF93.69146728515625
aF93.22301483154297
aF92.75689697265625
aF92.2931137084961
aF91.83164978027344
aF91.37248992919922
aF90.9156265258789
aF90.46104431152344
aF90.00874328613281
aF89.55870056152344
aF89.11090850830078
aF88.66535186767578
aF88.2220230102539
aF87.78091430664062
aF87.34201049804688
aF86.9052963256836
aF86.47077178955078
aF86.03842163085938
aF85.60823059082031
aF85.18018341064453
aF84.75428771972656
aF84.33051300048828
aF83.90885925292969
aF83.48931884765625
aF83.07186889648438
aF82.65650939941406
aF82.24322509765625
aF81.8320083618164
aF81.4228515625
aF81.01573944091797
aF80.61065673828125
aF80.20760345458984
aF79.80656433105469
aF79.40753173828125
aF79.010498046875
aF78.61544799804688
aF78.22236633300781
aF77.83125305175781
aF77.44210052490234
aF77.05488586425781
aF76.66961669921875
aF76.28627014160156
aF75.90483856201172
aF75.52531433105469
aF75.1476821899414
aF74.77194213867188
aF74.39808654785156
aF74.02609252929688
aF73.65596771240234
aF73.28768920898438
aF72.92124938964844
aF72.556640625
aF72.19385528564453
aF71.8328857421875
aF71.47372436523438
aF71.1163558959961
aF70.76077270507812
aF70.40696716308594
aF70.054931640625
aF69.70465850830078
aF69.35614013671875
aF69.00935363769531
aF68.664306640625
aF68.32099151611328
aF67.97938537597656
aF67.63948822021484
aF67.30128479003906
aF66.96478271484375
aF66.62995910644531
aF66.29680633544922
aF65.96532440185547
aF65.635498046875
aF65.30731964111328
aF64.98078155517578
aF64.65587615966797
aF64.33260345458984
aF64.01094055175781
aF63.69088363647461
aF63.37242889404297
aF63.055564880371094
aF62.74028778076172
aF62.42658615112305
aF62.11445236206055
aF61.80388259887695
aF61.4948616027832
aF61.1873893737793
aF60.88145065307617
aF60.57704544067383
aF60.2741584777832
aF59.97278594970703
aF59.67292404174805
aF59.37455749511719
aF59.07768630981445
aF58.78229904174805
aF58.48838806152344
aF58.195945739746094
aF57.904964447021484
aF57.615440368652344
aF57.327362060546875
aF57.04072570800781
aF56.755523681640625
aF56.471744537353516
aF56.18938446044922
aF55.90843963623047
aF55.62889862060547
aF55.35075378417969
aF55.073997497558594
aF54.79862976074219
aF54.524635314941406
aF54.252010345458984
aF53.980751037597656
aF53.71084976196289
aF53.44229507446289
aF53.17508316040039
aF52.90920639038086
aF52.64466094970703
aF52.381439208984375
aF52.119529724121094
aF51.85893249511719
aF51.599639892578125
aF51.34164047241211
aF51.084930419921875
aF50.829505920410156
aF50.57535934448242
aF50.32248306274414
aF50.07086944580078
aF49.82051467895508
aF49.571414947509766
aF49.32355499267578
aF49.07693862915039
aF48.8315544128418
aF100.0
aF100.0
aF100.0
aF99.5
aF99.00250244140625
aF98.50748443603516
aF98.01495361328125
aF97.52487182617188
aF97.0372543334961
aF96.55206298828125
aF96.06930541992188
aF95.58895874023438
aF95.11101531982422
aF94.63545989990234
aF94.16227722167969
aF93.69146728515625
aF93.22301483154297
aF92.75689697265625
aF92.2931137084961
aF91.83164978027344
aF91.37248992919922
aF90.9156265258789
aF90.46104431152344
aF90.00874328613281
aF89.55870056152344
aF89.11090850830078
aF88.66535186767578
aF88.2220230102539
aF87.78091430664062
aF87.34201049804688
aF86.9052963256836
aF86.47077178955078
aF86.03842163085938
aF85.60823059082031
aF85.18018341064453
aF84.75428771972656
aF84.33051300048828
aF83.90885925292969
aF83.48931884765625
aF83.07186889648438
aF82.65650939941406
aF82.24322509765625
aF81.8320083618164
aF81.4228515625
aF81.01573944091797
aF80.61065673828125
aF80.20760345458984
aF79.80656433105469
aF79.40753173828125
aF79.010498046875
aF78.61544799804688
aF78.22236633300781
aF77.83125305175781
aF77.44210052490234
aF77.05488586425781
aF76.66961669921875
aF76.28627014160156
aF75.90483856201172
aF75.52531433105469
aF75.1476821899414
aF74.77194213867188
aF74.39808654785156
aF74.02609252929688
aF73.65596771240234
aF73.28768920898438
aF72.92124938964844
aF72.556640625
aF72.19385528564453
aF71.8328857421875
aF71.47372436523438
aF71.1163558959961
aF70.76077270507812
aF70.40696716308594
aF70.054931640625
aF69.70465850830078
aF69.35614013671875
aF69.00935363769531
aF68.664306640625
aF68.32099151611328
aF67.97938537597656
aF67.63948822021484
aF67.30128479003906
aF66.96478271484375
aF66.62995910644531
aF66.29680633544922
aF65.96532440185547
aF65.635498046875
aF65.30731964111328
aF64.98078155517578
aF64.65587615966797
aF64.33260345458984
aF64.01094055175781
aF63.69088363647461
aF63.37242889404297
aF63.055564880371094
aF62.74028778076172
aF62.42658615112305
aF62.11445236206055
aF61.80388259887695
aF61.4948616027832
aF61.1873893737793
aF60.88145065307617
aF60.57704544067383
aF60.2741584777832
aF59.97278594970703
aF59.67292404174805
aF59.37455749511719
aF59.07768630981445
aF58.78229904174805
aF58.48838806152344
aF58.195945739746094
aF57.904964447021484
aF57.615440368652344
aF57.327362060546875
aF57.04072570800781
aF56.755523681640625
aF56.471744537353516
aF56.18938446044922
aF55.90843963623047
aF55.62889862060547
aF55.35075378417969
aF55.073997497558594
aF54.79862976074219
aF54.524635314941406
aF54.252010345458984
aF53.980751037597656
aF53.71084976196289
aF53.44229507446289
aF53.17508316040039
aF52.90920639038086
aF52.64466094970703
aF52.381439208984375
aF52.119529724121094
aF51.85893249511719
aF51.599639892578125
aF51.34164047241211
aF51.084930419921875
aF50.829505920410156
aF50.57535934448242
aF50.32248306274414
aF50.07086944580078
aF49.82051467895508
aF49.571414947509766
aF49.32355499267578
aF49.07693862915039
aF48.8315544128418
aF100.0
aF100.0
aF100.0
aF99.5
aF99.00250244140625
aF98.50748443603516
aF98.01495361328125
aF97.52487182617188
aF97.0372543334961
aF96.55206298828125
aF96.06930541992188
aF95.58895874023438
aF95.11101531982422
aF94.63545989990234
aF94.16227722167969
aF93.69146728515625
aF93.22301483154297
aF92.75689697265625
aF92.2931137084961
aF91.83164978027344
aF91.37248992919922
aF90.9156265258789
aF90.46104431152344
aF90.00874328613281
aF89.55870056152344
aF89.11090850830078
aF88.66535186767578
aF88.2220230102539
aF87.78091430664062
aF87.34201049804688
aF86.9052963256836
aF86.47077178955078
aF86.03842163085938
aF85.60823059082031
aF85.18018341064453
aF84.75428771972656
aF84.33051300048828
aF83.90885925292969
aF83.48931884765625
aF83.07186889648438
aF82.65650939941406
aF82.24322509765625
aF81.8320083618164
aF81.4228515625
aF81.01573944091797
aF80.61065673828125
aF80.20760345458984
aF79.80656433105469
aF79.40753173828125
aF79.010498046875
aF78.61544799804688
aF78.22236633300781
aF77.83125305175781
aF77.44210052490234
aF77.05488586425781
aF76.66961669921875
aF76.28627014160156
aF75.90483856201172
aF75.52531433105469
aF75.1476821899414
aF74.77194213867188
aF74.39808654785156
aF74.02609252929688
aF73.65596771240234
ass.