(dp0
S'battery'
p1
(dp2
I0
(lp3
F100.0
aF100.0
aF100.0
aF100.0
aF100.0
aF100.0
aF100.0
aF100.0
aF100.0
aF100.0
aF100.0
aF100.0
aF100.0
aF100.0
aF100.0
aF100.0
aF100.0
aF100.0
aF100.0
aF100.0
aF100.0
aF100.0
aF100.0
aF100.0
aF100.0
aF100.0
aF100.0
aF100.0
aF100.0
aF100.0
aF100.0
aF100.0
aF100.0
aF100.0
aF100.0
aF100.0
aF100.0
aF100.0
aF100.0
aF100.0
aF100.0
aF100.0
aF100.0
aF100.0
aF100.0
aF100.0
aF100.0
aF100.0
aF100.0
aF100.0
aF100.0
aF100.0
aF100.0
aF100.0
aF100.0
aF100.0
aF100.0
aF100.0
aF100.0
aF100.0
aF100.0
aF100.0
aF100.0
aF100.0
aF100.0
aF100.0
aF100.0
aF100.0
aF100.0
aF100.0
aF100.0
aF100.0
aF100.0
aF100.0
aF100.0
aF100.0
aF100.0
aF100.0
aF100.0
aF100.0
aF100.0
aF100.0
aF100.0
aF100.0
aF100.0
aF100.0
aF100.0
aF100.0
aF100.0
aF100.0
aF100.0
aF100.0
aF100.0
aF100.0
aF100.0
aF100.0
aF100.0
aF100.0
aF100.0
aF100.0
aF100.0
aF100.0
aF100.0
aF100.0
aF100.0
aF100.0
aF100.0
aF100.0
aF100.0
aF100.0
aF100.0
aF100.0
aF100.0
aF100.0
aF100.0
aF100.0
aF100.0
aF100.0
aF100.0
aF100.0
aF100.0
aF100.0
aF100.0
aF100.0
aF100.0
aF100.0
aF100.0
aF100.0
aF100.0
aF100.0
aF100.0
aF100.0
aF100.0
aF100.0
aF100.0
aF100.0
aF100.0
aF100.0
aF100.0
aF100.0
aF100.0
aF100.0
aF100.0
aF100.0
aF100.0
aF100.0
aF100.0
aF100.0
aF100.0
aF100.0
aF100.0
aF100.0
aF100.0
aF100.0
aF100.0
aF100.0
aF100.0
aF100.0
aF100.0
aF100.0
aF100.0
aF100.0
aF100.0
aF100.0
aF100.0
aF100.0
aF100.0
aF100.0
aF100.0
aF100.0
aF100.0
aF100.0
aF100.0
aF100.0
aF100.0
aF100.0
aF100.0
aF100.0
aF100.0
aF100.0
aF100.0
aF100.0
aF100.0
aF100.0
aF100.0
aF100.0
aF100.0
aF100.0
aF100.0
aF100.0
aF100.0
aF100.0
aF100.0
aF100.0
aF100.0
aF100.0
aF100.0
aF100.0
aF100.0
aF100.0
aF100.0
aF100.0
aF100.0
aF100.0
aF100.0
aF100.0
aF100.0
aF100.0
aF100.0
aF100.0
aF100.0
aF100.0
aF100.0
aF100.0
aF100.0
aF100.0
aF100.0
aF100.0
aF100.0
aF100.0
aF100.0
aF100.0
aF100.0
aF100.0
aF100.0
aF100.0
aF100.0
aF100.0
aF100.0
aF100.0
aF100.0
aF100.0
aF100.0
aF100.0
aF100.0
aF100.0
aF100.0
aF100.0
aF100.0
aF100.0
aF100.0
aF100.0
aF100.0
aF100.0
aF100.0
aF100.0
aF100.0
aF100.0
aF100.0
aF100.0
aF100.0
aF100.0
aF100.0
aF100.0
aF100.0
aF100.0
aF100.0
aF100.0
aF100.0
aF100.0
aF100.0
aF100.0
aF100.0
aF100.0
aF100.0
aF100.0
aF100.0
aF100.0
aF100.0
aF100.0
aF100.0
aF100.0
aF100.0
aF100.0
aF100.0
aF100.0
aF100.0
aF100.0
aF100.0
aF100.0
aF100.0
aF100.0
aF100.0
aF100.0
aF100.0
aF100.0
aF100.0
aF100.0
aF100.0
aF100.0
aF100.0
aF100.0
aF100.0
aF100.0
aF100.0
aF100.0
aF100.0
aF100.0
aF100.0
aF100.0
aF100.0
aF100.0
aF100.0
aF100.0
aF100.0
aF100.0
aF100.0
aF100.0
aF100.0
aF100.0
aF100.0
aF100.0
aF100.0
aF100.0
aF100.0
aF100.0
aF100.0
aF100.0
aF100.0
aF100.0
aF100.0
aF100.0
aF100.0
aF100.0
aF100.0
aF100.0
aF100.0
aF100.0
aF100.0
aF100.0
aF100.0
aF100.0
aF100.0
aF100.0
aF100.0
aF100.0
aF100.0
aF100.0
aF100.0
aF100.0
aF100.0
aF100.0
aF100.0
aF100.0
aF100.0
aF100.0
aF100.0
aF100.0
aF100.0
aF100.0
aF100.0
aF100.0
aF100.0
aF100.0
aF100.0
aF100.0
aF100.0
aF100.0
aF100.0
aF100.0
aF100.0
aF100.0
aF100.0
aF100.0
aF100.0
aF100.0
aF100.0
aF100.0
aF100.0
aF100.0
aF100.0
aF100.0
aF100.0
aF100.0
aF100.0
aF100.0
aF100.0
aF100.0
aF100.0
aF100.0
aF100.0
aF100.0
aF100.0
aF99.5
aF98.5
aF97.4000015258789
aF96.5
aF95.5
aF94.5
aF93.4000015258789
aF92.4000015258789
aF91.5
aF90.5
aF89.5
aF88.4000015258789
aF87.1500015258789
aF86.1500015258789
aF85.25
aF84.1500015258789
aF83.1500015258789
aF82.25
aF81.25
aF80.1500015258789
aF79.25
aF78.25
aF77.25
aF76.25
aF75.1500015258789
aF74.25
aF73.25
aF72.25
aF71.1500015258789
aF69.9000015258789
aF68.9000015258789
aF68.0
aF66.9000015258789
aF65.9000015258789
aF64.9000015258789
aF63.900001525878906
aF63.0
aF61.900001525878906
aF61.0
aF60.0
aF59.0
aF57.75
aF56.849998474121094
aF55.849998474121094
aF54.849998474121094
aF53.75
aF52.75
aF51.849998474121094
aF50.849998474121094
aF49.849998474121094
aF48.75
aF47.75
aF46.849998474121094
aF45.849998474121094
aF44.75
aF43.75
aF42.75
aF41.75
aF40.75
aF39.849998474121094
aF38.849998474121094
aF37.849998474121094
aF36.75
aF35.849998474121094
aF34.849998474121094
aF33.599998474121094
aF32.5
aF31.5
aF30.5
aF29.5
aF28.5
aF27.600000381469727
aF26.600000381469727
aF25.600000381469727
aF24.600000381469727
aF23.5
aF22.600000381469727
aF21.600000381469727
aF20.600000381469727
aF19.5
aF18.5
aF17.600000381469727
aF16.600000381469727
aF15.350000381469727
aF14.350000381469727
aF13.350000381469727
aF12.350000381469727
aF11.25
aF10.25
aF9.350000381469727
aF8.350000381469727
aF7.349999904632568
aF6.25
aF5.25
aF4.349999904632568
aF3.3499999046325684
aF2.25
aF1.25
aF0.25
aF-0.6499999761581421
aF-1.75
aF-2.75
aF-3.9000000953674316
aF-4.900000095367432
aF-6.0
aF-7.0
aF-8.0
aF-8.899999618530273
aF-9.899999618530273
aF-11.0
aF-12.0
aF-13.0
aF-14.0
aF-14.899999618530273
aF-15.899999618530273
aF-16.899999618530273
aF-17.899999618530273
aF-19.0
aF99.5
aF98.5
aF97.5
aF99.19999694824219
aF99.30000305175781
aF98.4000015258789
aF100.0
aF100.0
aF100.0
aF100.0
aF100.0
aF100.0
aF100.0
aF100.0
aF100.0
aF100.0
aF100.0
aF100.0
aF100.0
aF100.0
aF100.0
aF100.0
aF100.0
aF100.0
aF100.0
aF100.0
aF100.0
aF100.0
aF100.0
aF100.0
aF100.0
aF100.0
aF100.0
aF100.0
aF100.0
aF100.0
aF100.0
aF100.0
aF100.0
aF100.0
aF100.0
aF100.0
aF100.0
aF100.0
aF100.0
aF100.0
aF100.0
aF100.0
aF100.0
aF100.0
aF100.0
aF100.0
aF100.0
aF100.0
aF100.0
aF100.0
aF100.0
aF100.0
aF100.0
aF100.0
aF100.0
aF100.0
aF100.0
aF100.0
aF100.0
aF100.0
aF100.0
aF100.0
aF100.0
aF100.0
aF100.0
aF100.0
aF100.0
aF100.0
aF100.0
aF100.0
aF100.0
aF100.0
aF100.0
aF100.0
aF100.0
aF100.0
aF100.0
aF100.0
aF100.0
aF100.0
aF100.0
aF100.0
aF100.0
aF100.0
aF100.0
aF100.0
aF100.0
aF100.0
aF100.0
aF100.0
aF100.0
aF100.0
aF100.0
aF100.0
aF100.0
aF100.0
aF100.0
aF100.0
aF100.0
aF100.0
aF100.0
aF100.0
aF100.0
aF100.0
aF100.0
aF100.0
aF100.0
aF100.0
aF100.0
aF100.0
aF100.0
aF100.0
aF100.0
aF100.0
aF100.0
aF100.0
aF100.0
aF100.0
aF100.0
aF100.0
aF100.0
aF100.0
aF100.0
aF100.0
aF100.0
aF100.0
aF100.0
aF100.0
aF100.0
aF100.0
aF100.0
aF100.0
aF100.0
aF100.0
aF100.0
aF100.0
aF100.0
aF100.0
aF100.0
aF100.0
aF100.0
aF100.0
aF100.0
aF100.0
aF100.0
aF100.0
aF100.0
aF100.0
aF100.0
aF100.0
aF100.0
aF100.0
aF100.0
aF100.0
aF100.0
aF100.0
aF100.0
aF100.0
aF100.0
aF100.0
aF100.0
aF100.0
aF100.0
aF100.0
aF100.0
aF100.0
aF100.0
aF100.0
aF100.0
aF100.0
aF100.0
aF100.0
aF100.0
aF100.0
aF100.0
aF100.0
aF100.0
aF100.0
aF100.0
aF100.0
aF100.0
aF100.0
aF100.0
aF100.0
aF100.0
aF100.0
aF100.0
aF100.0
aF100.0
aF100.0
aF100.0
aF100.0
aF100.0
aF100.0
aF100.0
aF100.0
aF100.0
aF100.0
aF100.0
aF100.0
aF100.0
aF100.0
aF100.0
aF100.0
aF100.0
aF100.0
aF100.0
aF100.0
aF100.0
aF100.0
aF100.0
aF100.0
aF100.0
aF100.0
aF100.0
aF100.0
aF100.0
aF100.0
aF100.0
aF100.0
aF100.0
aF100.0
aF100.0
aF100.0
aF100.0
aF100.0
aF100.0
aF100.0
aF100.0
aF100.0
aF100.0
aF100.0
aF100.0
aF100.0
aF100.0
aF100.0
aF100.0
aF100.0
aF100.0
aF100.0
aF100.0
aF100.0
aF100.0
aF100.0
aF100.0
aF100.0
aF100.0
aF100.0
aF100.0
aF100.0
aF100.0
aF100.0
aF100.0
aF100.0
aF100.0
aF100.0
aF100.0
aF100.0
aF100.0
aF100.0
aF100.0
aF100.0
aF100.0
aF100.0
aF100.0
aF100.0
aF100.0
aF100.0
aF100.0
aF100.0
aF100.0
aF100.0
aF100.0
aF100.0
aF100.0
aF100.0
aF100.0
aF100.0
aF100.0
aF100.0
aF100.0
aF100.0
aF100.0
aF100.0
aF100.0
aF100.0
aF100.0
aF100.0
aF100.0
aF100.0
aF100.0
aF100.0
aF100.0
aF100.0
aF100.0
aF100.0
aF100.0
aF100.0
aF100.0
aF100.0
aF100.0
aF100.0
aF100.0
aF100.0
aF100.0
aF100.0
aF100.0
aF100.0
aF100.0
aF100.0
aF100.0
aF99.4000015258789
aF98.4000015258789
aF97.30000305175781
aF96.30000305175781
aF95.4000015258789
aF94.4000015258789
aF93.30000305175781
aF92.30000305175781
aF91.30000305175781
aF90.4000015258789
aF89.05000305175781
aF88.05000305175781
aF87.05000305175781
aF86.1500015258789
aF85.05000305175781
aF84.05000305175781
aF83.05000305175781
aF82.05000305175781
aF81.1500015258789
aF80.05000305175781
aF79.05000305175781
aF78.1500015258789
aF77.1500015258789
aF76.1500015258789
aF75.1500015258789
aF74.1500015258789
aF73.1500015258789
aF71.80000305175781
aF70.80000305175781
aF69.80000305175781
aF68.9000015258789
aF67.80000305175781
aF66.80000305175781
aF65.80000305175781
aF64.80000305175781
aF63.900001525878906
aF62.79999923706055
aF61.79999923706055
aF60.79999923706055
aF59.650001525878906
aF58.75
aF57.75
aF56.75
aF55.75
aF54.650001525878906
aF53.75
aF52.75
aF51.75
aF50.75
aF49.75
aF48.75
aF47.75
aF46.75
aF45.650001525878906
aF44.75
aF43.75
aF42.75
aF41.650001525878906
aF40.650001525878906
aF39.75
aF38.75
aF37.650001525878906
aF36.650001525878906
aF35.5
aF34.5
aF33.5
aF32.400001525878906
aF31.399999618530273
aF30.5
aF29.5
aF28.399999618530273
aF27.399999618530273
aF26.5
aF25.5
aF24.399999618530273
aF23.399999618530273
aF22.399999618530273
aF21.5
aF20.399999618530273
aF19.399999618530273
aF18.399999618530273
aF17.399999618530273
aF16.149999618530273
aF15.149999618530273
aF14.149999618530273
aF13.149999618530273
aF12.25
aF11.25
aF10.25
aF9.25
aF8.25
aF7.150000095367432
aF6.25
aF5.25
aF4.25
aF3.1500000953674316
aF2.1500000953674316
aF1.25
aF0.25
aF-0.75
aF-1.850000023841858
aF-3.0
aF-4.0
aF-4.900000095367432
aF-6.0
aF-7.0
aF-8.0
aF-9.0
aF-9.899999618530273
aF-11.0
aF-12.0
aF-12.899999618530273
aF-13.899999618530273
aF-14.899999618530273
aF-15.899999618530273
aF-16.899999618530273
aF99.80000305175781
aF98.69999694824219
aF99.19999694824219
aF98.30000305175781
aF99.0999984741211
aF98.0
aF100.0
aF100.0
aF100.0
aF100.0
aF100.0
aF100.0
aF100.0
aF100.0
aF100.0
aF100.0
aF100.0
aF100.0
aF100.0
aF100.0
aF100.0
aF100.0
aF100.0
aF100.0
aF100.0
aF100.0
aF100.0
aF100.0
aF100.0
aF100.0
aF100.0
aF100.0
aF100.0
aF100.0
aF100.0
aF100.0
aF100.0
aF100.0
aF100.0
aF100.0
aF100.0
aF100.0
aF100.0
aF100.0
aF100.0
aF100.0
aF100.0
aF100.0
aF100.0
aF100.0
aF100.0
aF100.0
aF100.0
aF100.0
aF100.0
aF100.0
aF100.0
aF100.0
aF100.0
aF100.0
aF100.0
aF100.0
aF100.0
aF100.0
aF100.0
aF100.0
aF100.0
aF100.0
aF100.0
aF100.0
aF100.0
aF100.0
aF100.0
aF100.0
aF100.0
aF100.0
aF100.0
aF100.0
aF100.0
aF100.0
aF100.0
aF100.0
aF100.0
aF100.0
aF100.0
aF100.0
aF100.0
aF100.0
aF100.0
aF100.0
aF100.0
aF100.0
aF100.0
aF100.0
aF100.0
aF100.0
aF100.0
aF100.0
aF100.0
aF100.0
aF100.0
aF100.0
aF100.0
aF100.0
aF100.0
aF100.0
aF100.0
aF100.0
aF100.0
aF100.0
aF100.0
aF100.0
aF100.0
aF100.0
aF100.0
aF100.0
aF100.0
aF100.0
aF100.0
aF100.0
aF100.0
aF100.0
aF100.0
aF100.0
aF100.0
aF100.0
aF100.0
aF100.0
aF100.0
aF100.0
aF100.0
aF100.0
aF100.0
aF100.0
aF100.0
aF100.0
aF100.0
aF100.0
aF100.0
aF100.0
aF100.0
aF100.0
aF100.0
aF100.0
aF100.0
aF100.0
aF100.0
aF100.0
aF100.0
aF100.0
aF100.0
aF100.0
aF100.0
aF100.0
aF100.0
aF100.0
aF100.0
aF100.0
aF100.0
aF100.0
aF100.0
aF100.0
aF100.0
aF100.0
aF100.0
aF100.0
aF100.0
aF100.0
aF100.0
aF100.0
aF100.0
aF100.0
aF100.0
aF100.0
aF100.0
aF100.0
aF100.0
aF100.0
aF100.0
aF100.0
aF100.0
aF100.0
aF100.0
aF100.0
aF100.0
aF100.0
aF100.0
aF100.0
aF100.0
aF100.0
aF100.0
aF100.0
aF100.0
aF100.0
aF100.0
aF100.0
aF100.0
aF100.0
aF100.0
aF100.0
aF100.0
aF100.0
aF100.0
aF100.0
aF100.0
aF100.0
aF100.0
aF100.0
aF100.0
aF100.0
aF100.0
aF100.0
aF100.0
aF100.0
aF100.0
aF100.0
aF100.0
aF100.0
aF100.0
aF100.0
aF100.0
aF100.0
aF100.0
aF100.0
aF100.0
aF100.0
aF100.0
aF100.0
aF100.0
aF100.0
aF100.0
aF100.0
aF100.0
aF100.0
aF100.0
aF100.0
aF100.0
aF100.0
aF100.0
aF100.0
aF100.0
aF100.0
aF100.0
aF100.0
aF100.0
aF100.0
aF100.0
aF100.0
aF100.0
aF100.0
aF100.0
aF100.0
aF100.0
aF100.0
aF100.0
aF100.0
aF100.0
aF100.0
aF100.0
aF100.0
aF100.0
aF100.0
aF100.0
aF100.0
aF100.0
aF100.0
aF100.0
aF100.0
aF100.0
aF100.0
aF100.0
aF100.0
aF100.0
aF100.0
aF100.0
aF100.0
aF100.0
aF100.0
aF100.0
aF100.0
aF100.0
aF100.0
aF100.0
aF100.0
aF100.0
aF100.0
aF100.0
aF100.0
aF100.0
aF100.0
aF100.0
aF100.0
aF100.0
aF100.0
aF100.0
aF100.0
aF100.0
aF100.0
aF100.0
aF100.0
aF100.0
aF100.0
aF100.0
aF100.0
aF100.0
aF100.0
aF100.0
aF100.0
aF100.0
aF100.0
aF100.0
aF100.0
aF100.0
aF100.0
aF100.0
aF100.0
aF100.0
aF100.0
aF100.0
aF100.0
aF100.0
aF100.0
aF100.0
aF100.0
aF100.0
aF100.0
aF100.0
aF100.0
aF100.0
aF100.0
aF100.0
aF100.0
aF100.0
aF100.0
aF100.0
aF100.0
aF100.0
aF100.0
aF100.0
aF99.69999694824219
aF98.69999694824219
aF97.69999694824219
aF96.5999984741211
aF95.69999694824219
aF94.69999694824219
aF93.69999694824219
aF92.5999984741211
aF91.69999694824219
aF90.69999694824219
aF89.69999694824219
aF88.5999984741211
aF87.3499984741211
aF86.3499984741211
aF85.3499984741211
aF84.3499984741211
aF83.3499984741211
aF82.3499984741211
aF81.44999694824219
aF80.3499984741211
aF79.44999694824219
aF78.44999694824219
aF77.44999694824219
aF76.44999694824219
aF75.3499984741211
aF74.44999694824219
aF73.44999694824219
aF72.44999694824219
aF71.0999984741211
aF70.0999984741211
aF69.19999694824219
aF68.19999694824219
aF67.0999984741211
aF66.19999694824219
aF65.19999694824219
aF64.19999694824219
aF63.099998474121094
aF62.20000076293945
aF61.20000076293945
aF60.20000076293945
aF58.849998474121094
aF57.95000076293945
aF56.95000076293945
aF55.95000076293945
aF54.849998474121094
aF53.849998474121094
aF52.95000076293945
aF51.95000076293945
aF50.849998474121094
aF49.849998474121094
aF48.849998474121094
aF47.95000076293945
aF46.95000076293945
aF45.849998474121094
aF44.849998474121094
aF43.849998474121094
aF42.95000076293945
aF41.849998474121094
aF40.849998474121094
aF39.849998474121094
aF38.849998474121094
aF37.849998474121094
aF36.95000076293945
aF35.95000076293945
aF34.70000076293945
aF33.599998474121094
aF32.70000076293945
aF31.700000762939453
aF30.700000762939453
aF29.600000381469727
aF28.600000381469727
aF27.700000762939453
aF26.700000762939453
aF25.700000762939453
aF24.600000381469727
aF23.600000381469727
aF22.700000762939453
aF21.700000762939453
aF20.600000381469727
aF19.600000381469727
aF18.600000381469727
aF17.700000762939453
aF16.450000762939453
aF15.449999809265137
aF14.449999809265137
aF13.449999809265137
aF12.350000381469727
aF11.449999809265137
aF10.449999809265137
aF9.449999809265137
aF8.350000381469727
aF7.349999904632568
aF6.449999809265137
aF5.449999809265137
aF4.449999809265137
aF3.3499999046325684
aF2.3499999046325684
aF1.350000023841858
aF0.44999998807907104
aF-0.6499999761581421
aF-1.649999976158142
aF-2.9000000953674316
aF-3.799999952316284
aF-4.900000095367432
aF-5.900000095367432
aF-6.900000095367432
aF-7.900000095367432
aF-8.899999618530273
aF-9.800000190734863
aF-10.800000190734863
aF-11.800000190734863
aF-12.899999618530273
aF-13.800000190734863
aF-14.800000190734863
aF-15.800000190734863
aF-16.799999237060547
aF-17.899999618530273
aF99.4000015258789
aF98.5
aF97.5
aF99.4000015258789
aF98.4000015258789
aF99.0
aF98.0
aF100.0
aF100.0
aF100.0
aF100.0
aF100.0
aF100.0
aF100.0
aF100.0
aF100.0
aF100.0
aF100.0
aF100.0
aF100.0
aF100.0
aF100.0
aF100.0
aF100.0
aF100.0
aF100.0
aF100.0
aF100.0
aF100.0
aF100.0
aF100.0
aF100.0
aF100.0
aF100.0
aF100.0
aF100.0
aF100.0
aF100.0
aF100.0
aF100.0
aF100.0
aF100.0
aF100.0
aF100.0
aF100.0
aF100.0
aF100.0
aF100.0
aF100.0
aF100.0
aF100.0
aF100.0
aF100.0
aF100.0
aF100.0
aF100.0
aF100.0
aF100.0
aF100.0
aF100.0
aF100.0
aF100.0
aF100.0
aF100.0
aF100.0
aF100.0
aF100.0
aF100.0
aF100.0
aF100.0
aF100.0
aF100.0
aF100.0
aF100.0
aF100.0
aF100.0
aF100.0
aF100.0
aF100.0
aF100.0
aF100.0
aF100.0
aF100.0
aF100.0
aF100.0
aF100.0
aF100.0
aF100.0
aF100.0
aF100.0
aF100.0
aF100.0
aF100.0
aF100.0
aF100.0
aF100.0
aF100.0
aF100.0
aF100.0
aF100.0
aF100.0
aF100.0
aF100.0
aF100.0
aF100.0
aF100.0
aF100.0
aF100.0
aF100.0
aF100.0
aF100.0
aF100.0
aF100.0
aF100.0
aF100.0
aF100.0
aF100.0
aF100.0
aF100.0
aF100.0
aF100.0
aF100.0
aF100.0
aF100.0
aF100.0
aF100.0
aF100.0
aF100.0
aF100.0
aF100.0
aF100.0
aF100.0
aF100.0
aF100.0
aF100.0
aF100.0
aF100.0
aF100.0
aF100.0
aF100.0
aF100.0
aF100.0
aF100.0
aF100.0
aF100.0
aF100.0
aF100.0
aF100.0
aF100.0
aF100.0
aF100.0
aF100.0
aF100.0
aF100.0
aF100.0
aF100.0
aF100.0
aF100.0
aF100.0
aF100.0
aF100.0
aF100.0
aF100.0
aF100.0
aF100.0
aF100.0
aF100.0
aF100.0
aF100.0
aF100.0
aF100.0
aF100.0
aF100.0
aF100.0
aF100.0
aF100.0
aF100.0
aF100.0
aF100.0
aF100.0
aF100.0
aF100.0
aF100.0
aF100.0
aF100.0
aF100.0
aF100.0
aF100.0
aF100.0
aF100.0
aF100.0
aF100.0
aF100.0
aF100.0
aF100.0
aF100.0
aF100.0
aF100.0
aF100.0
aF100.0
aF100.0
aF100.0
aF100.0
aF100.0
aF100.0
aF100.0
aF100.0
aF100.0
aF100.0
aF100.0
aF100.0
aF100.0
aF100.0
aF100.0
aF100.0
aF100.0
aF100.0
aF100.0
aF100.0
aF100.0
aF100.0
aF100.0
aF100.0
aF100.0
aF100.0
aF100.0
aF100.0
aF100.0
aF100.0
aF100.0
aF100.0
aF100.0
aF100.0
aF100.0
aF100.0
aF100.0
aF100.0
aF100.0
aF100.0
aF100.0
aF100.0
aF100.0
aF100.0
aF100.0
aF100.0
aF100.0
aF100.0
aF100.0
aF100.0
aF100.0
aF100.0
aF100.0
aF100.0
aF100.0
aF100.0
aF100.0
aF100.0
aF100.0
aF100.0
aF100.0
aF100.0
aF100.0
aF100.0
aF100.0
aF100.0
aF100.0
aF100.0
aF100.0
aF100.0
aF100.0
aF100.0
aF100.0
aF100.0
aF100.0
aF100.0
aF100.0
aF100.0
aF100.0
aF100.0
aF100.0
aF100.0
aF100.0
aF100.0
aF100.0
aF100.0
aF100.0
aF100.0
aF100.0
aF100.0
aF100.0
aF100.0
aF100.0
aF100.0
aF100.0
aF100.0
aF100.0
aF100.0
aF100.0
aF100.0
aF100.0
aF100.0
aF100.0
aF100.0
aF100.0
aF100.0
aF100.0
aF100.0
aF100.0
aF100.0
aF100.0
aF100.0
aF100.0
aF100.0
aF100.0
aF100.0
aF100.0
aF100.0
aF100.0
aF100.0
aF100.0
aF100.0
aF100.0
aF100.0
aF100.0
aF100.0
aF100.0
aF100.0
aF100.0
aF100.0
aF100.0
aF100.0
aF100.0
aF100.0
aF100.0
aF100.0
aF100.0
aF100.0
aF100.0
aF100.0
aF100.0
aF100.0
aF100.0
aF100.0
aF100.0
aF100.0
aF100.0
aF99.9000015258789
aF98.9000015258789
aF97.80000305175781
aF96.9000015258789
aF95.9000015258789
aF94.9000015258789
aF93.9000015258789
aF92.80000305175781
aF91.9000015258789
aF90.9000015258789
aF89.9000015258789
aF88.80000305175781
aF87.55000305175781
aF86.55000305175781
aF85.6500015258789
aF84.55000305175781
aF83.55000305175781
aF82.6500015258789
aF81.6500015258789
aF80.6500015258789
aF79.6500015258789
aF78.6500015258789
aF77.6500015258789
aF76.55000305175781
aF75.6500015258789
aF74.6500015258789
aF73.6500015258789
aF72.55000305175781
aF71.30000305175781
aF70.4000015258789
aF69.4000015258789
aF68.4000015258789
aF67.30000305175781
aF66.30000305175781
aF65.30000305175781
aF64.4000015258789
aF63.29999923706055
aF62.29999923706055
aF61.29999923706055
aF60.29999923706055
aF59.150001525878906
aF58.150001525878906
aF57.150001525878906
aF56.150001525878906
aF55.04999923706055
aF54.04999923706055
aF53.150001525878906
aF52.150001525878906
aF51.150001525878906
aF50.04999923706055
aF49.04999923706055
aF48.150001525878906
aF47.150001525878906
aF46.04999923706055
aF45.04999923706055
aF44.04999923706055
aF43.150001525878906
aF42.04999923706055
aF41.04999923706055
aF40.04999923706055
aF39.04999923706055
aF38.04999923706055
aF37.04999923706055
aF36.150001525878906
aF34.900001525878906
aF33.900001525878906
aF32.79999923706055
aF31.799999237060547
aF30.899999618530273
aF29.899999618530273
aF28.799999237060547
aF27.799999237060547
aF26.799999237060547
aF25.899999618530273
aF24.799999237060547
aF23.799999237060547
aF22.799999237060547
aF21.799999237060547
aF20.899999618530273
aF19.899999618530273
aF18.899999618530273
aF17.899999618530273
aF16.549999237060547
aF15.550000190734863
aF14.649999618530273
aF13.649999618530273
aF12.550000190734863
aF11.550000190734863
aF10.550000190734863
aF9.649999618530273
aF8.550000190734863
aF7.550000190734863
aF6.550000190734863
aF5.650000095367432
aF4.650000095367432
aF3.6500000953674316
aF2.6500000953674316
aF1.649999976158142
aF0.550000011920929
aF-0.3499999940395355
aF-1.350000023841858
aF-2.5999999046325684
aF-3.5999999046325684
aF-4.699999809265137
aF-5.699999809265137
aF-6.599999904632568
aF-7.599999904632568
aF-8.699999809265137
aF-9.699999809265137
aF-10.600000381469727
aF-11.600000381469727
aF-12.699999809265137
aF-13.699999809265137
aF-14.699999809265137
aF-15.600000381469727
aF-16.700000762939453
aF-17.700000762939453
aF99.4000015258789
aF98.4000015258789
aF97.30000305175781
aF99.0999984741211
aF99.5
aF98.5
aF100.0
aF100.0
aF100.0
aF100.0
aF100.0
aF100.0
aF100.0
aF100.0
aF100.0
aF100.0
aF100.0
aF100.0
aF100.0
aF100.0
aF100.0
aF100.0
aF100.0
aF100.0
aF100.0
aF100.0
aF100.0
aF100.0
aF100.0
aF100.0
aF100.0
aF100.0
aF100.0
aF100.0
aF100.0
aF100.0
aF100.0
aF100.0
aF100.0
aF100.0
aF100.0
aF100.0
aF100.0
aF100.0
aF100.0
aF100.0
aF100.0
aF100.0
aF100.0
aF100.0
aF100.0
aF100.0
aF100.0
aF100.0
aF100.0
aF100.0
aF100.0
aF100.0
aF100.0
aF100.0
aF100.0
aF100.0
aF100.0
aF100.0
aF100.0
aF100.0
aF100.0
aF100.0
aF100.0
aF100.0
aF100.0
aF100.0
aF100.0
aF100.0
aF100.0
aF100.0
aF100.0
aF100.0
aF100.0
aF100.0
aF100.0
aF100.0
aF100.0
aF100.0
aF100.0
aF100.0
aF100.0
aF100.0
aF100.0
aF100.0
aF100.0
aF100.0
aF100.0
aF100.0
aF100.0
aF100.0
aF100.0
aF100.0
aF100.0
aF100.0
aF100.0
aF100.0
aF100.0
aF100.0
aF100.0
aF100.0
aF100.0
aF100.0
aF100.0
aF100.0
aF100.0
aF100.0
aF100.0
aF100.0
aF100.0
aF100.0
aF100.0
aF100.0
aF100.0
aF100.0
aF100.0
aF100.0
aF100.0
aF100.0
aF100.0
aF100.0
aF100.0
aF100.0
aF100.0
aF100.0
aF100.0
aF100.0
aF100.0
aF100.0
aF100.0
aF100.0
aF100.0
aF100.0
aF100.0
aF100.0
aF100.0
aF100.0
aF100.0
aF100.0
aF100.0
aF100.0
aF100.0
assS'fmeasures'
p4
(dp5
I1
(lp6
F0.39440712332725525
aF0.3865189850330353
aF0.3787885904312134
aF0.37121281027793884
aF0.36378857493400574
aF0.35651278495788574
aF0.34938254952430725
aF0.3423948884010315
aF0.33554700016975403
aF0.328836053609848
aF0.3222593367099762
aF0.31581413745880127
aF0.3094978630542755
aF0.3033078908920288
aF0.297241747379303
aF0.29129689931869507
aF0.28547096252441406
aF0.27976155281066895
aF0.2741663157939911
aF0.26868298649787903
aF0.2633093297481537
aF0.2580431401729584
aF0.2528822720050812
aF0.24782463908195496
aF0.24286814033985138
aF0.23801077902317047
aF0.23325057327747345
aF0.22858555614948273
aF0.22401385009288788
aF0.21953356266021729
aF0.2151428908109665
aF0.21084003150463104
aF0.20662324130535126
aF0.20249077677726746
aF0.19844095408916473
aF0.19447213411331177
aF0.19058269262313843
aF0.18677103519439697
aF0.18303562700748444
aF0.17937490344047546
aF0.17578740417957306
aF0.17227166891098022
aF0.16882622241973877
aF0.16544970870018005
aF0.16214071214199066
aF0.15889789164066315
aF0.15571993589401245
aF0.15260553359985352
aF0.14955343306064606
aF0.1465623527765274
aF0.14363111555576324
aF0.1407584846019745
aF0.1379433274269104
aF0.13518445193767548
aF0.13248077034950256
aF0.12983115017414093
aF0.1272345334291458
aF0.12468983978033066
aF0.12219604104757309
aF0.11975211650133133
aF0.11735707521438599
aF0.11500993371009827
aF0.11270973831415176
aF0.11045554280281067
aF0.10824643075466156
aF0.10608150064945221
aF0.10395987331867218
aF0.10188067704439163
aF0.09984306246042252
aF0.09784620255231857
aF0.09588927775621414
aF0.09397149085998535
aF0.09209205955266953
aF0.09025021642446518
aF0.08844521641731262
aF0.08667630702257156
aF0.0849427878856659
aF0.08324392884969711
aF0.0815790519118309
aF0.07994747161865234
aF0.07834851741790771
aF0.07678154855966568
aF0.0752459168434143
aF0.07374099642038345
aF0.07226617634296417
aF0.07082085311412811
aF0.06940443813800812
aF0.06801635026931763
aF0.06665602326393127
aF0.06532290577888489
aF0.0640164464712143
aF0.06273611634969711
aF0.06148139387369156
aF0.060251764953136444
aF0.059046730399131775
aF0.057865794748067856
aF0.056708481162786484
aF0.05557430908083916
aF0.054462824016809464
aF0.05337356775999069
aF0.052306097000837326
aF0.051259975880384445
aF0.050234775990247726
aF0.04923008009791374
aF0.04824547842144966
aF0.04728056862950325
aF0.04633495584130287
aF0.045408256351947784
aF0.044500093907117844
aF0.043610092252492905
aF0.04273789003491402
aF0.04188312962651253
aF0.04104546830058098
aF0.04022455960512161
aF0.03942006826400757
aF0.03863166645169258
aF0.03785903379321098
aF0.037101853638887405
aF0.036359816789627075
aF0.03563261777162552
aF0.034919966012239456
aF0.03422156721353531
aF0.033537134528160095
aF0.03286639228463173
aF0.032209064811468124
aF0.03156488388776779
aF0.03093358688056469
aF0.030314914882183075
aF0.0297086164355278
aF0.02911444380879402
aF0.028532154858112335
aF0.02796151302754879
aF0.027402281761169434
aF0.02685423567891121
aF0.02631715126335621
aF0.025790808722376823
aF0.025274991989135742
aF0.02476949244737625
aF0.024274103343486786
aF0.02378861978650093
aF0.023312848061323166
aF0.022846590727567673
aF0.02238965965807438
aF0.021941866725683212
aF0.021503029391169548
aF0.02107296884059906
aF0.02065150812268257
aF0.02023847959935665
aF0.01983371004462242
aF0.01943703554570675
aF0.01904829405248165
aF0.018667329102754593
aF0.01829398237168789
aF0.017928102985024452
aF0.017569540068507195
aF0.017218150198459625
aF0.016873786225914955
aF0.01653631031513214
aF0.01620558463037014
aF0.015881473198533058
aF0.0155638437718153
aF0.015252566896378994
aF0.014947514981031418
aF0.014648565091192722
aF0.014355593360960484
aF0.014068481512367725
aF0.013787112198770046
aF0.013511369936168194
aF0.01324114203453064
aF0.012976319529116154
aF0.012716793455183506
aF0.01246245764195919
aF0.01221320778131485
aF0.011968944221735
aF0.01172956544905901
aF0.011494973674416542
aF0.011265073902904987
aF0.011039773002266884
aF0.01081897784024477
aF0.010602598078548908
aF0.010390546172857285
aF0.010182734578847885
aF0.00997908040881157
aF0.009779498912394047
aF0.009583909064531326
aF0.00939223077148199
aF0.009204385802149773
aF0.009020297788083553
aF0.008839892223477364
aF0.008663094602525234
aF0.008489832282066345
aF0.0083200354129076
aF0.008153635077178478
aF0.007990562357008457
aF0.00783075112849474
aF0.007674136199057102
aF0.007520653307437897
aF0.007370240520685911
aF0.007222835440188646
aF0.007078378926962614
aF0.006936811376363039
aF0.006798075046390295
aF0.006662113592028618
aF0.006528871133923531
aF0.0063982936553657055
aF0.0062703280709683895
aF0.0061449212953448296
aF0.006022023037075996
aF0.0059015825390815735
aF0.0057835509069263935
aF0.0056678797118365765
aF0.005554522387683392
aF0.005443431902676821
aF0.005334563087671995
aF0.0052278717048466206
aF0.005123314447700977
aF0.005020848009735346
aF0.004920431412756443
aF0.004822022747248411
aF0.004725581966340542
aF0.0046310704201459885
aF0.004538448993116617
aF0.004447679966688156
aF0.004358726553618908
aF0.004271551966667175
aF0.004186120815575123
aF0.00410239864140749
aF0.004020350519567728
aF0.003939943388104439
aF0.0038611446507275105
aF0.0037839217111468315
aF0.0037082433700561523
aF0.0036340784281492233
aF0.003561396850273013
aF0.0034901690669357777
aF0.003420365508645773
aF0.0033519582357257605
aF0.003284919075667858
aF0.0032192207872867584
aF0.0031548363622277975
aF0.0030917394906282425
aF0.003029904793947935
aF0.0029693066608160734
aF0.0029099206440150738
aF0.002851722063496709
aF0.0027946876361966133
aF0.002738793846219778
aF0.0026840181089937687
aF0.002630337607115507
aF0.002577730920165777
aF0.002526176394894719
aF0.0024756528437137604
aF0.0024261397775262594
aF0.0023776169400662184
aF0.0023300645407289267
aF0.002283463254570961
aF0.0022377939894795418
aF0.0021930381190031767
aF0.0021491774823516607
aF0.002106193918734789
aF0.002064069965854287
aF0.0020227886270731688
aF0.001982332905754447
aF0.0019426861545071006
aF0.0019038324244320393
aF0.0018657557666301727
aF0.001828440697863698
aF0.001791871851310134
aF0.0017560344422236085
aF0.0017209136858582497
aF0.0016864954959601164
aF0.001652765553444624
aF0.0016197102377191186
aF0.0015873160446062684
aF0.0015555697027593851
aF0.001524458290077746
aF0.0014939691172912717
aF0.001464089727960527
aF0.0014348080148920417
aF0.001406111870892346
aF0.001377989538013935
aF0.0013504298403859138
aF0.0013234211364760995
aF0.001296952716074884
aF0.0012710137525573373
aF0.0012455934192985296
aF0.001220681588165462
aF0.0011962678981944919
aF0.0011723425704985857
aF0.0011488957097753882
aF0.0011259177699685097
aF0.0011033994378522038
aF0.0010813315166160464
aF0.001059704809449613
aF0.0010385107016190886
aF0.001017740578390658
aF0.0009973857086151838
aF0.0009774380596354604
aF0.000957889249548316
aF0.0009387314785271883
aF0.000919956830330193
aF0.0009015576797537506
aF0.000883526518009603
aF0.0008658560109324753
aF0.0008485388825647533
aF0.0008315680897794664
aF0.0008149367640726268
aF0.0007986380369402468
aF0.0007826652727089822
aF0.0007670119521208107
aF0.0007516717305406928
aF0.0007366382633335888
aF0.0007219054969027638
aF0.0007074673776514828
aF0.0006933180266059935
aF0.0006794516812078655
aF0.0006658626371063292
aF0.0006525454227812588
aF0.0006394945085048676
aF0.0006267045973800123
aF0.0006141705089248717
aF0.0006018871208652854
aF0.0005898493691347539
aF0.0005780523642897606
aF0.0005664913333021104
aF0.0005551615031436086
aF0.0005440582754090428
aF0.000533177109900862
aF0.0005225135828368366
aF0.0005120632704347372
aF0.000501822039950639
aF0.0004917855840176344
aF0.0004819498863071203
aF0.00047231087228283286
aF0.00046286467113532126
aF0.00045360735384747386
aF0.00044453522423282266
aF0.0004356444987934083
aF0.000426931626861915
aF0.0004183929995633662
aF0.000410025124438107
aF0.00040182462544180453
aF0.00039378812653012574
aF0.0003859123680740595
aF0.0003781941195484251
aF0.0003706302377395332
aF0.0003632176376413554
aF0.0003559532924555242
aF0.00034883423359133303
aF0.00034185752156190574
aF0.00033502039150334895
aF0.00032831996213644743
aF0.00032175358501262963
aF0.00031531849526800215
aF0.0003090121317654848
aF0.00030283190426416695
aF0.0002967752516269684
aF0.0002908397582359612
aF0.0002850229502655566
aF0.00027932249940931797
aF0.0002737360482569784
aF0.0002682613267097622
aF0.00026289609377272427
aF0.0002576381666585803
aF0.00025248542078770697
aF0.0002474357024766505
aF0.00024248698900919408
aF0.00023763725766912103
aF0.00023288450029212981
aF0.00022822681057732552
aF0.00022366228222381324
aF0.0002191890380345285
aF0.00021480525902006775
aF0.0002105091407429427
aF0.00020629896607715636
aF0.00020217298879288137
aF0.00019812952086795121
aF0.00019416693248786032
aF0.00019028359383810312
aF0.0001864779187599197
aF0.00018274836475029588
aF0.00017909340385813266
aF0.00017551153723616153
aF0.00017200129514094442
aF0.0001685612805886194
aF0.0001651900529395789
aF0.0001618862443137914
aF0.0001586485159350559
aF0.0001554755581310019
aF0.00015236604667734355
aF0.00014931871555745602
aF0.00014633234241046011
aF0.00014340570487547666
aF0.00014053758059162647
aF0.00013772683450952172
aF100.0
aF100.0
aF100.0
aF98.0
aF96.04000091552734
aF94.11920166015625
aF92.23681640625
aF90.39208221435547
aF88.58423614501953
aF86.81255340576172
aF85.07630157470703
aF83.3747787475586
aF81.70728302001953
aF80.07313537597656
aF78.47167205810547
aF76.90223693847656
aF75.36419677734375
aF73.8569107055664
aF72.37976837158203
aF70.93217468261719
aF69.51353454589844
aF68.12326049804688
aF66.76079559326172
aF65.42558288574219
aF64.11707305908203
aF62.8347282409668
aF61.578033447265625
aF60.346473693847656
aF59.13954162597656
aF57.95675277709961
aF56.7976188659668
aF55.66166687011719
aF54.548431396484375
aF53.457462310791016
aF52.38831329345703
aF51.34054946899414
aF50.31373596191406
aF49.30746078491211
aF48.321311950683594
aF47.35488510131836
aF46.40778732299805
aF45.47963333129883
aF44.57004165649414
aF43.67863845825195
aF42.8050651550293
aF41.94896697998047
aF41.1099853515625
aF40.287784576416016
aF39.48202896118164
aF38.69239044189453
aF37.918540954589844
aF37.16017150878906
aF100.0
aF100.0
aF100.0
aF98.0
aF96.04000091552734
aF94.11920166015625
aF92.23681640625
aF90.39208221435547
aF88.58423614501953
aF86.81255340576172
aF85.07630157470703
aF83.3747787475586
aF81.70728302001953
aF80.07313537597656
aF78.47167205810547
aF76.90223693847656
aF75.36419677734375
aF73.8569107055664
aF72.37976837158203
aF70.93217468261719
aF69.51353454589844
aF68.12326049804688
aF66.76079559326172
aF65.42558288574219
aF64.11707305908203
aF62.8347282409668
aF61.578033447265625
aF60.346473693847656
aF59.13954162597656
aF57.95675277709961
aF56.7976188659668
aF55.66166687011719
aF54.548431396484375
aF53.457462310791016
aF52.38831329345703
aF51.34054946899414
aF50.31373596191406
aF49.30746078491211
aF100.0
aF100.0
aF100.0
aF98.0
aF96.04000091552734
aF94.11920166015625
aF92.23681640625
aF90.39208221435547
aF88.58423614501953
aF86.81255340576172
aF85.07630157470703
aF83.3747787475586
aF81.70728302001953
aF80.07313537597656
aF78.47167205810547
aF76.90223693847656
aF75.36419677734375
aF73.8569107055664
aF72.37976837158203
aF70.93217468261719
aF69.51353454589844
aF68.12326049804688
aF66.76079559326172
aF65.42558288574219
aF64.11707305908203
aF62.8347282409668
aF61.578033447265625
aF60.346473693847656
aF59.13954162597656
aF57.95675277709961
aF56.7976188659668
aF55.66166687011719
aF54.548431396484375
aF53.457462310791016
aF52.38831329345703
aF51.34054946899414
aF50.31373596191406
aF49.30746078491211
aF48.321311950683594
aF47.35488510131836
aF46.40778732299805
aF45.47963333129883
aF44.57004165649414
aF43.67863845825195
aF42.8050651550293
aF41.94896697998047
aF41.1099853515625
aF40.287784576416016
aF39.48202896118164
aF38.69239044189453
aF37.918540954589844
aF37.16017150878906
aF36.416969299316406
aF35.688629150390625
aF34.974857330322266
aF34.275360107421875
aF33.58985137939453
aF32.91805648803711
aF32.25969314575195
aF31.614500045776367
aF30.982210159301758
aF30.362565994262695
aF29.755313873291016
aF29.160207748413086
aF28.577003479003906
aF28.005464553833008
aF27.445354461669922
aF26.896448135375977
aF26.358518600463867
aF25.831348419189453
aF25.314720153808594
aF24.808425903320312
aF24.312257766723633
aF23.826013565063477
aF23.3494930267334
aF22.882503509521484
aF22.42485237121582
aF21.976356506347656
aF21.536828994750977
aF21.10609245300293
aF20.683969497680664
aF20.27029037475586
aF19.864885330200195
aF19.467586517333984
aF19.078235626220703
aF18.696670532226562
aF18.322736740112305
aF17.956283569335938
aF17.597156524658203
aF17.245214462280273
aF16.900310516357422
aF16.56230354309082
aF16.23105812072754
aF15.9064359664917
aF15.58830738067627
aF15.276541709899902
aF14.971010208129883
aF14.671589851379395
aF14.378158569335938
aF14.090595245361328
aF13.808783531188965
aF13.532608032226562
aF13.261955261230469
aF12.996716499328613
aF12.73678207397461
aF12.482046127319336
aF12.232405662536621
aF11.987757682800293
aF11.748002052307129
aF11.513042449951172
aF11.282781600952148
aF11.05712604522705
aF10.835983276367188
aF10.619263648986816
aF10.406878471374512
aF10.19874095916748
aF9.994766235351562
aF9.794870376586914
aF9.598973274230957
aF9.406993865966797
aF9.218853950500488
aF9.034477233886719
aF8.853787422180176
aF8.676711082458496
aF8.503177642822266
aF8.333113670349121
aF8.166451454162598
aF8.003122329711914
aF7.84306001663208
aF7.686198711395264
aF7.532474994659424
aF7.3818254470825195
aF7.234189033508301
aF7.089505195617676
aF6.947714805603027
aF6.808760643005371
aF6.672585487365723
aF6.539133548736572
aF6.408350944519043
aF6.280183792114258
aF6.154580116271973
aF6.03148889541626
aF5.910859107971191
aF5.792641639709473
aF5.676788806915283
aF5.563253402709961
aF5.451988220214844
aF5.3429484367370605
aF5.23608922958374
aF5.1313676834106445
aF5.028740406036377
aF4.928165435791016
aF4.829602241516113
aF4.733010292053223
aF4.638350009918213
aF4.5455827713012695
aF4.454671382904053
aF4.365577697753906
aF4.278266429901123
aF4.1927008628845215
aF4.108846664428711
aF4.026669979095459
aF3.946136474609375
aF3.867213726043701
aF3.789869546890259
aF3.7140722274780273
aF3.6397907733917236
aF3.5669949054718018
aF3.495655059814453
aF3.4257419109344482
aF3.357227087020874
aF3.2900824546813965
aF3.224280834197998
aF3.1597952842712402
aF3.0965993404388428
aF3.0346672534942627
aF2.9739739894866943
aF2.914494514465332
aF2.8562047481536865
aF2.7990806102752686
aF2.7430989742279053
aF2.688236951828003
aF2.634472131729126
aF2.581782817840576
aF2.530147075653076
aF2.479544162750244
aF2.4299533367156982
aF2.381354331970215
aF2.3337271213531494
aF2.287052631378174
aF2.241311550140381
aF2.1964852809906006
aF2.1525557041168213
aF2.109504461288452
aF2.067314386367798
aF2.025968074798584
aF1.9854487180709839
aF1.94573974609375
aF1.9068249464035034
aF1.8686884641647339
aF1.8313146829605103
aF1.7946884632110596
aF1.7587946653366089
aF1.723618745803833
aF1.6891463994979858
aF1.6553634405136108
aF1.6222561597824097
aF1.589811086654663
aF1.5580148696899414
aF1.5268545150756836
aF1.4963175058364868
aF1.4663910865783691
aF1.4370633363723755
aF1.4083219766616821
aF1.3801555633544922
aF1.3525524139404297
aF1.3255014419555664
aF1.2989914417266846
aF1.273011565208435
aF1.2475513219833374
aF1.2226003408432007
aF1.198148250579834
aF1.1741853952407837
aF1.150701642036438
aF1.1276875734329224
aF1.1051338911056519
aF1.083031177520752
aF1.0613704919815063
aF1.0401431322097778
aF1.0193402767181396
aF0.9989534616470337
aF0.9789744019508362
aF0.9593949317932129
aF0.9402070045471191
aF0.9214028716087341
aF0.9029747843742371
aF0.884915292263031
aF0.8672170042991638
aF0.8498726487159729
aF0.8328751921653748
aF0.8162177205085754
aF0.7998933792114258
aF0.7838954925537109
aF0.7682175636291504
aF0.7528532147407532
aF0.7377961874008179
aF0.7230402231216431
aF0.708579421043396
aF0.6944078207015991
aF0.680519700050354
aF0.6669092774391174
aF0.6535711288452148
aF0.6404997110366821
aF0.6276897192001343
aF0.615135908126831
aF0.6028332114219666
aF0.5907765030860901
aF0.5789610147476196
aF0.567381739616394
aF0.5560341477394104
aF0.5449134707450867
aF0.5340151786804199
aF0.5233348608016968
aF0.5128681659698486
aF0.5026108026504517
aF0.4925585985183716
aF0.4827074408531189
aF0.4730532765388489
aF0.46359220147132874
aF0.45432037115097046
aF0.4452339708805084
aF0.43632927536964417
aF0.42760270833969116
aF0.4190506339073181
aF0.41066962480545044
aF0.40245622396469116
aF0.39440712332725525
aF0.3865189850330353
aF0.3787885904312134
aF0.37121281027793884
aF0.36378857493400574
aF0.35651278495788574
aF0.34938254952430725
aF0.3423948884010315
aF0.33554700016975403
aF0.328836053609848
aF0.3222593367099762
aF0.31581413745880127
aF0.3094978630542755
aF0.3033078908920288
aF0.297241747379303
aF0.29129689931869507
aF0.28547096252441406
aF0.27976155281066895
aF0.2741663157939911
aF0.26868298649787903
aF0.2633093297481537
aF0.2580431401729584
aF0.2528822720050812
aF0.24782463908195496
aF0.24286814033985138
aF0.23801077902317047
aF0.23325057327747345
aF0.22858555614948273
aF0.22401385009288788
aF0.21953356266021729
aF0.2151428908109665
aF0.21084003150463104
aF0.20662324130535126
aF0.20249077677726746
aF0.19844095408916473
aF0.19447213411331177
aF0.19058269262313843
aF0.18677103519439697
aF0.18303562700748444
aF0.17937490344047546
aF0.17578740417957306
aF0.17227166891098022
aF0.16882622241973877
aF0.16544970870018005
aF0.16214071214199066
aF0.15889789164066315
aF0.15571993589401245
aF0.15260553359985352
aF0.14955343306064606
aF0.1465623527765274
aF0.14363111555576324
aF0.1407584846019745
aF0.1379433274269104
aF0.13518445193767548
aF0.13248077034950256
aF0.12983115017414093
aF0.1272345334291458
aF0.12468983978033066
aF0.12219604104757309
aF0.11975211650133133
aF0.11735707521438599
aF0.11500993371009827
aF0.11270973831415176
aF0.11045554280281067
aF0.10824643075466156
aF0.10608150064945221
aF0.10395987331867218
aF100.0
aF100.0
aF100.0
aF98.0
aF96.04000091552734
aF94.11920166015625
aF92.23681640625
aF90.39208221435547
aF88.58423614501953
aF86.81255340576172
aF85.07630157470703
aF83.3747787475586
aF81.70728302001953
aF80.07313537597656
aF78.47167205810547
aF76.90223693847656
aF75.36419677734375
aF73.8569107055664
aF72.37976837158203
aF70.93217468261719
aF69.51353454589844
aF68.12326049804688
aF66.76079559326172
aF65.42558288574219
aF64.11707305908203
aF62.8347282409668
aF61.578033447265625
aF60.346473693847656
aF59.13954162597656
aF57.95675277709961
aF56.7976188659668
aF55.66166687011719
aF54.548431396484375
aF53.457462310791016
aF52.38831329345703
aF51.34054946899414
aF50.31373596191406
aF49.30746078491211
aF48.321311950683594
aF47.35488510131836
aF46.40778732299805
aF45.47963333129883
aF44.57004165649414
aF43.67863845825195
aF42.8050651550293
aF41.94896697998047
aF41.1099853515625
aF40.287784576416016
aF39.48202896118164
aF38.69239044189453
aF37.918540954589844
aF37.16017150878906
aF36.416969299316406
aF100.0
aF100.0
aF100.0
aF98.0
aF96.04000091552734
aF94.11920166015625
aF92.23681640625
aF90.39208221435547
aF88.58423614501953
aF86.81255340576172
aF85.07630157470703
aF83.3747787475586
aF81.70728302001953
aF80.07313537597656
aF78.47167205810547
aF76.90223693847656
aF75.36419677734375
aF73.8569107055664
aF72.37976837158203
aF70.93217468261719
aF69.51353454589844
aF68.12326049804688
aF66.76079559326172
aF65.42558288574219
aF64.11707305908203
aF62.8347282409668
aF61.578033447265625
aF60.346473693847656
aF59.13954162597656
aF57.95675277709961
aF56.7976188659668
aF55.66166687011719
aF54.548431396484375
aF53.457462310791016
aF52.38831329345703
aF51.34054946899414
aF50.31373596191406
aF49.30746078491211
aF100.0
aF100.0
aF100.0
aF98.0
aF96.04000091552734
aF94.11920166015625
aF92.23681640625
aF90.39208221435547
aF88.58423614501953
aF86.81255340576172
aF85.07630157470703
aF83.3747787475586
aF81.70728302001953
aF80.07313537597656
aF78.47167205810547
aF76.90223693847656
aF75.36419677734375
aF73.8569107055664
aF72.37976837158203
aF70.93217468261719
aF69.51353454589844
aF68.12326049804688
aF66.76079559326172
aF65.42558288574219
aF64.11707305908203
aF62.8347282409668
aF61.578033447265625
aF60.346473693847656
aF59.13954162597656
aF57.95675277709961
aF56.7976188659668
aF55.66166687011719
aF54.548431396484375
aF53.457462310791016
aF52.38831329345703
aF51.34054946899414
aF50.31373596191406
aF49.30746078491211
aF48.321311950683594
aF47.35488510131836
aF46.40778732299805
aF45.47963333129883
aF44.57004165649414
aF43.67863845825195
aF42.8050651550293
aF41.94896697998047
aF41.1099853515625
aF40.287784576416016
aF39.48202896118164
aF38.69239044189453
aF37.918540954589844
aF37.16017150878906
aF36.416969299316406
aF35.688629150390625
aF34.974857330322266
aF34.275360107421875
aF33.58985137939453
aF32.91805648803711
aF32.25969314575195
aF31.614500045776367
aF30.982210159301758
aF30.362565994262695
aF29.755313873291016
aF29.160207748413086
aF28.577003479003906
aF28.005464553833008
aF27.445354461669922
aF26.896448135375977
aF26.358518600463867
aF25.831348419189453
aF25.314720153808594
aF24.808425903320312
aF24.312257766723633
aF23.826013565063477
aF23.3494930267334
aF22.882503509521484
aF22.42485237121582
aF21.976356506347656
aF21.536828994750977
aF21.10609245300293
aF20.683969497680664
aF20.27029037475586
aF19.864885330200195
aF19.467586517333984
aF19.078235626220703
aF18.696670532226562
aF18.322736740112305
aF17.956283569335938
aF17.597156524658203
aF17.245214462280273
aF16.900310516357422
aF16.56230354309082
aF16.23105812072754
aF15.9064359664917
aF15.58830738067627
aF15.276541709899902
aF14.971010208129883
aF14.671589851379395
aF14.378158569335938
aF14.090595245361328
aF13.808783531188965
aF13.532608032226562
aF13.261955261230469
aF12.996716499328613
aF12.73678207397461
aF12.482046127319336
aF12.232405662536621
aF11.987757682800293
aF11.748002052307129
aF11.513042449951172
aF11.282781600952148
aF11.05712604522705
aF10.835983276367188
aF10.619263648986816
aF10.406878471374512
aF10.19874095916748
aF9.994766235351562
aF9.794870376586914
aF9.598973274230957
aF9.406993865966797
aF9.218853950500488
aF9.034477233886719
aF8.853787422180176
aF8.676711082458496
aF8.503177642822266
aF8.333113670349121
aF8.166451454162598
aF8.003122329711914
aF7.84306001663208
aF7.686198711395264
aF7.532474994659424
aF7.3818254470825195
aF7.234189033508301
aF7.089505195617676
aF6.947714805603027
aF6.808760643005371
aF6.672585487365723
aF6.539133548736572
aF6.408350944519043
aF6.280183792114258
aF6.154580116271973
aF6.03148889541626
aF5.910859107971191
aF5.792641639709473
aF5.676788806915283
aF5.563253402709961
aF5.451988220214844
aF5.3429484367370605
aF5.23608922958374
aF5.1313676834106445
aF5.028740406036377
aF4.928165435791016
aF4.829602241516113
aF4.733010292053223
aF4.638350009918213
aF4.5455827713012695
aF4.454671382904053
aF4.365577697753906
aF4.278266429901123
aF4.1927008628845215
aF4.108846664428711
aF4.026669979095459
aF3.946136474609375
aF3.867213726043701
aF3.789869546890259
aF3.7140722274780273
aF3.6397907733917236
aF3.5669949054718018
aF3.495655059814453
aF3.4257419109344482
aF3.357227087020874
aF3.2900824546813965
aF3.224280834197998
aF3.1597952842712402
aF3.0965993404388428
aF3.0346672534942627
aF2.9739739894866943
aF2.914494514465332
aF2.8562047481536865
aF2.7990806102752686
aF2.7430989742279053
aF2.688236951828003
aF2.634472131729126
aF2.581782817840576
aF2.530147075653076
aF2.479544162750244
aF2.4299533367156982
aF2.381354331970215
aF2.3337271213531494
aF2.287052631378174
aF2.241311550140381
aF2.1964852809906006
aF2.1525557041168213
aF2.109504461288452
aF2.067314386367798
aF2.025968074798584
aF1.9854487180709839
aF1.94573974609375
aF1.9068249464035034
aF1.8686884641647339
aF1.8313146829605103
aF1.7946884632110596
aF1.7587946653366089
aF1.723618745803833
aF1.6891463994979858
aF1.6553634405136108
aF1.6222561597824097
aF1.589811086654663
aF1.5580148696899414
aF1.5268545150756836
aF1.4963175058364868
aF1.4663910865783691
aF1.4370633363723755
aF1.4083219766616821
aF1.3801555633544922
aF1.3525524139404297
aF1.3255014419555664
aF1.2989914417266846
aF1.273011565208435
aF1.2475513219833374
aF1.2226003408432007
aF1.198148250579834
aF1.1741853952407837
aF1.150701642036438
aF1.1276875734329224
aF1.1051338911056519
aF1.083031177520752
aF1.0613704919815063
aF1.0401431322097778
aF1.0193402767181396
aF0.9989534616470337
aF0.9789744019508362
aF0.9593949317932129
aF0.9402070045471191
aF0.9214028716087341
aF0.9029747843742371
aF0.884915292263031
aF0.8672170042991638
aF0.8498726487159729
aF0.8328751921653748
aF0.8162177205085754
aF0.7998933792114258
aF0.7838954925537109
aF0.7682175636291504
aF0.7528532147407532
aF0.7377961874008179
aF0.7230402231216431
aF0.708579421043396
aF0.6944078207015991
aF0.680519700050354
aF0.6669092774391174
aF0.6535711288452148
aF0.6404997110366821
aF0.6276897192001343
aF0.615135908126831
aF0.6028332114219666
aF0.5907765030860901
aF0.5789610147476196
aF0.567381739616394
aF0.5560341477394104
aF0.5449134707450867
aF0.5340151786804199
aF0.5233348608016968
aF0.5128681659698486
aF0.5026108026504517
aF0.4925585985183716
aF0.4827074408531189
aF0.4730532765388489
aF0.46359220147132874
aF0.45432037115097046
aF0.4452339708805084
aF0.43632927536964417
aF0.42760270833969116
aF0.4190506339073181
aF0.41066962480545044
aF0.40245622396469116
aF0.39440712332725525
aF0.3865189850330353
aF0.3787885904312134
aF0.37121281027793884
aF0.36378857493400574
aF0.35651278495788574
aF0.34938254952430725
aF0.3423948884010315
aF0.33554700016975403
aF0.328836053609848
aF0.3222593367099762
aF0.31581413745880127
aF0.3094978630542755
aF0.3033078908920288
aF0.297241747379303
aF0.29129689931869507
aF0.28547096252441406
aF0.27976155281066895
aF0.2741663157939911
aF0.26868298649787903
aF0.2633093297481537
aF0.2580431401729584
aF0.2528822720050812
aF0.24782463908195496
aF0.24286814033985138
aF0.23801077902317047
aF0.23325057327747345
aF0.22858555614948273
aF0.22401385009288788
aF0.21953356266021729
aF0.2151428908109665
aF0.21084003150463104
aF0.20662324130535126
aF0.20249077677726746
aF0.19844095408916473
aF0.19447213411331177
aF0.19058269262313843
aF0.18677103519439697
aF0.18303562700748444
aF0.17937490344047546
aF0.17578740417957306
aF0.17227166891098022
aF0.16882622241973877
aF0.16544970870018005
aF0.16214071214199066
aF0.15889789164066315
aF0.15571993589401245
aF0.15260553359985352
aF0.14955343306064606
aF0.1465623527765274
aF0.14363111555576324
aF0.1407584846019745
aF0.1379433274269104
aF0.13518445193767548
aF0.13248077034950256
aF0.12983115017414093
aF0.1272345334291458
aF0.12468983978033066
aF0.12219604104757309
aF0.11975211650133133
aF0.11735707521438599
aF0.11500993371009827
aF0.11270973831415176
aF0.11045554280281067
aF0.10824643075466156
aF0.10608150064945221
aF0.10395987331867218
aF0.10188067704439163
aF0.09984306246042252
aF0.09784620255231857
aF0.09588927775621414
aF0.09397149085998535
aF0.09209205955266953
aF0.09025021642446518
aF0.08844521641731262
aF0.08667630702257156
aF0.0849427878856659
aF0.08324392884969711
aF0.0815790519118309
aF0.07994747161865234
aF0.07834851741790771
aF0.07678154855966568
aF0.0752459168434143
aF0.07374099642038345
aF0.07226617634296417
aF0.07082085311412811
aF0.06940443813800812
aF0.06801635026931763
aF0.06665602326393127
aF0.06532290577888489
aF100.0
aF100.0
aF100.0
aF98.0
aF96.04000091552734
aF94.11920166015625
aF92.23681640625
aF90.39208221435547
aF88.58423614501953
aF86.81255340576172
aF85.07630157470703
aF83.3747787475586
aF81.70728302001953
aF80.07313537597656
aF78.47167205810547
aF76.90223693847656
aF75.36419677734375
aF73.8569107055664
aF72.37976837158203
aF70.93217468261719
aF69.51353454589844
aF68.12326049804688
aF66.76079559326172
aF65.42558288574219
aF64.11707305908203
aF62.8347282409668
aF61.578033447265625
aF60.346473693847656
aF59.13954162597656
aF57.95675277709961
aF56.7976188659668
aF55.66166687011719
aF54.548431396484375
aF53.457462310791016
aF52.38831329345703
aF51.34054946899414
aF50.31373596191406
aF49.30746078491211
aF48.321311950683594
aF47.35488510131836
aF46.40778732299805
aF45.47963333129883
aF44.57004165649414
aF43.67863845825195
aF42.8050651550293
aF41.94896697998047
aF41.1099853515625
aF40.287784576416016
aF39.48202896118164
aF38.69239044189453
aF37.918540954589844
aF37.16017150878906
aF100.0
aF100.0
aF100.0
aF98.0
aF96.04000091552734
aF94.11920166015625
aF92.23681640625
aF90.39208221435547
aF88.58423614501953
aF86.81255340576172
aF85.07630157470703
aF83.3747787475586
aF81.70728302001953
aF80.07313537597656
aF78.47167205810547
aF76.90223693847656
aF75.36419677734375
aF73.8569107055664
aF72.37976837158203
aF70.93217468261719
aF69.51353454589844
aF68.12326049804688
aF66.76079559326172
aF65.42558288574219
aF64.11707305908203
aF62.8347282409668
aF61.578033447265625
aF60.346473693847656
aF59.13954162597656
aF57.95675277709961
aF56.7976188659668
aF55.66166687011719
aF54.548431396484375
aF53.457462310791016
aF52.38831329345703
aF51.34054946899414
aF50.31373596191406
aF100.0
aF100.0
aF100.0
aF98.0
aF96.04000091552734
aF94.11920166015625
aF92.23681640625
aF90.39208221435547
aF88.58423614501953
aF86.81255340576172
aF85.07630157470703
aF83.3747787475586
aF81.70728302001953
aF80.07313537597656
aF78.47167205810547
aF76.90223693847656
aF75.36419677734375
aF73.8569107055664
aF72.37976837158203
aF70.93217468261719
aF69.51353454589844
aF68.12326049804688
aF66.76079559326172
aF65.42558288574219
aF64.11707305908203
aF62.8347282409668
aF61.578033447265625
aF60.346473693847656
aF59.13954162597656
aF57.95675277709961
aF56.7976188659668
aF55.66166687011719
aF54.548431396484375
aF53.457462310791016
aF52.38831329345703
aF51.34054946899414
aF50.31373596191406
aF49.30746078491211
aF48.321311950683594
aF47.35488510131836
aF46.40778732299805
aF45.47963333129883
aF44.57004165649414
aF43.67863845825195
aF42.8050651550293
aF41.94896697998047
aF41.1099853515625
aF40.287784576416016
aF39.48202896118164
aF38.69239044189453
aF37.918540954589844
aF37.16017150878906
aF36.416969299316406
aF35.688629150390625
aF34.974857330322266
aF34.275360107421875
aF33.58985137939453
aF32.91805648803711
aF32.25969314575195
aF31.614500045776367
aF30.982210159301758
aF30.362565994262695
aF29.755313873291016
aF29.160207748413086
aF28.577003479003906
aF28.005464553833008
aF27.445354461669922
aF26.896448135375977
aF26.358518600463867
aF25.831348419189453
aF25.314720153808594
aF24.808425903320312
aF24.312257766723633
aF23.826013565063477
aF23.3494930267334
aF22.882503509521484
aF22.42485237121582
aF21.976356506347656
aF21.536828994750977
aF21.10609245300293
aF20.683969497680664
aF20.27029037475586
aF19.864885330200195
aF19.467586517333984
aF19.078235626220703
aF18.696670532226562
aF18.322736740112305
aF17.956283569335938
aF17.597156524658203
aF17.245214462280273
aF16.900310516357422
aF16.56230354309082
aF16.23105812072754
aF15.9064359664917
aF15.58830738067627
aF15.276541709899902
aF14.971010208129883
aF14.671589851379395
aF14.378158569335938
aF14.090595245361328
aF13.808783531188965
aF13.532608032226562
aF13.261955261230469
aF12.996716499328613
aF12.73678207397461
aF12.482046127319336
aF12.232405662536621
aF11.987757682800293
aF11.748002052307129
aF11.513042449951172
aF11.282781600952148
aF11.05712604522705
aF10.835983276367188
aF10.619263648986816
aF10.406878471374512
aF10.19874095916748
aF9.994766235351562
aF9.794870376586914
aF9.598973274230957
aF9.406993865966797
aF9.218853950500488
aF9.034477233886719
aF8.853787422180176
aF8.676711082458496
aF8.503177642822266
aF8.333113670349121
aF8.166451454162598
aF8.003122329711914
aF7.84306001663208
aF7.686198711395264
aF7.532474994659424
aF7.3818254470825195
aF7.234189033508301
aF7.089505195617676
aF6.947714805603027
aF6.808760643005371
aF6.672585487365723
aF6.539133548736572
aF6.408350944519043
aF6.280183792114258
aF6.154580116271973
aF6.03148889541626
aF5.910859107971191
aF5.792641639709473
aF5.676788806915283
aF5.563253402709961
aF5.451988220214844
aF5.3429484367370605
aF5.23608922958374
aF5.1313676834106445
aF5.028740406036377
aF4.928165435791016
aF4.829602241516113
aF4.733010292053223
aF4.638350009918213
aF4.5455827713012695
aF4.454671382904053
aF4.365577697753906
aF4.278266429901123
aF4.1927008628845215
aF4.108846664428711
aF4.026669979095459
aF3.946136474609375
aF3.867213726043701
aF3.789869546890259
aF3.7140722274780273
aF3.6397907733917236
aF3.5669949054718018
aF3.495655059814453
aF3.4257419109344482
aF3.357227087020874
aF3.2900824546813965
aF3.224280834197998
aF3.1597952842712402
aF3.0965993404388428
aF3.0346672534942627
aF2.9739739894866943
aF2.914494514465332
aF2.8562047481536865
aF2.7990806102752686
aF2.7430989742279053
aF2.688236951828003
aF2.634472131729126
aF2.581782817840576
aF2.530147075653076
aF2.479544162750244
aF2.4299533367156982
aF2.381354331970215
aF2.3337271213531494
aF2.287052631378174
aF2.241311550140381
aF2.1964852809906006
aF2.1525557041168213
aF2.109504461288452
aF2.067314386367798
aF2.025968074798584
aF1.9854487180709839
aF1.94573974609375
aF1.9068249464035034
aF1.8686884641647339
aF1.8313146829605103
aF1.7946884632110596
aF1.7587946653366089
aF1.723618745803833
aF1.6891463994979858
aF1.6553634405136108
aF1.6222561597824097
aF1.589811086654663
aF1.5580148696899414
aF1.5268545150756836
aF1.4963175058364868
aF1.4663910865783691
aF1.4370633363723755
aF1.4083219766616821
aF1.3801555633544922
aF1.3525524139404297
aF1.3255014419555664
aF1.2989914417266846
aF1.273011565208435
aF1.2475513219833374
aF1.2226003408432007
aF1.198148250579834
aF1.1741853952407837
aF1.150701642036438
aF1.1276875734329224
aF1.1051338911056519
aF1.083031177520752
aF1.0613704919815063
aF1.0401431322097778
aF1.0193402767181396
aF0.9989534616470337
aF0.9789744019508362
aF0.9593949317932129
aF0.9402070045471191
aF0.9214028716087341
aF0.9029747843742371
aF0.884915292263031
aF0.8672170042991638
aF0.8498726487159729
aF0.8328751921653748
aF0.8162177205085754
aF0.7998933792114258
aF0.7838954925537109
aF0.7682175636291504
aF0.7528532147407532
aF0.7377961874008179
aF0.7230402231216431
aF0.708579421043396
aF0.6944078207015991
aF0.680519700050354
aF0.6669092774391174
aF0.6535711288452148
aF0.6404997110366821
aF0.6276897192001343
aF0.615135908126831
aF0.6028332114219666
aF0.5907765030860901
aF0.5789610147476196
aF0.567381739616394
aF0.5560341477394104
aF0.5449134707450867
aF0.5340151786804199
aF0.5233348608016968
aF0.5128681659698486
aF0.5026108026504517
aF0.4925585985183716
aF0.4827074408531189
aF0.4730532765388489
aF0.46359220147132874
aF0.45432037115097046
aF0.4452339708805084
aF0.43632927536964417
aF0.42760270833969116
aF0.4190506339073181
aF0.41066962480545044
aF0.40245622396469116
aF0.39440712332725525
aF0.3865189850330353
aF0.3787885904312134
aF0.37121281027793884
aF0.36378857493400574
aF0.35651278495788574
aF0.34938254952430725
aF0.3423948884010315
aF0.33554700016975403
aF0.328836053609848
aF0.3222593367099762
aF0.31581413745880127
aF0.3094978630542755
aF0.3033078908920288
aF0.297241747379303
aF0.29129689931869507
aF0.28547096252441406
aF0.27976155281066895
aF0.2741663157939911
aF0.26868298649787903
aF0.2633093297481537
aF0.2580431401729584
aF0.2528822720050812
aF0.24782463908195496
aF0.24286814033985138
aF0.23801077902317047
aF0.23325057327747345
aF0.22858555614948273
aF0.22401385009288788
aF0.21953356266021729
aF0.2151428908109665
aF0.21084003150463104
aF0.20662324130535126
aF0.20249077677726746
aF0.19844095408916473
aF0.19447213411331177
aF0.19058269262313843
aF0.18677103519439697
aF0.18303562700748444
aF0.17937490344047546
aF0.17578740417957306
aF0.17227166891098022
aF0.16882622241973877
aF0.16544970870018005
aF0.16214071214199066
aF0.15889789164066315
aF0.15571993589401245
aF0.15260553359985352
aF0.14955343306064606
aF0.1465623527765274
aF0.14363111555576324
aF0.1407584846019745
aF0.1379433274269104
aF0.13518445193767548
aF0.13248077034950256
aF0.12983115017414093
aF0.1272345334291458
aF0.12468983978033066
aF0.12219604104757309
aF0.11975211650133133
aF0.11735707521438599
aF0.11500993371009827
aF0.11270973831415176
aF0.11045554280281067
aF0.10824643075466156
aF0.10608150064945221
aF0.10395987331867218
aF0.10188067704439163
aF0.09984306246042252
aF0.09784620255231857
aF0.09588927775621414
aF0.09397149085998535
aF0.09209205955266953
aF0.09025021642446518
aF0.08844521641731262
aF0.08667630702257156
aF0.0849427878856659
aF0.08324392884969711
aF0.0815790519118309
aF0.07994747161865234
aF0.07834851741790771
aF0.07678154855966568
aF0.0752459168434143
aF0.07374099642038345
aF0.07226617634296417
aF0.07082085311412811
aF0.06940443813800812
aF0.06801635026931763
aF0.06665602326393127
aF0.06532290577888489
aF0.0640164464712143
aF0.06273611634969711
aF0.06148139387369156
aF0.060251764953136444
aF0.059046730399131775
aF0.057865794748067856
aF0.056708481162786484
aF0.05557430908083916
aF100.0
aF100.0
aF100.0
aF98.0
aF96.04000091552734
aF94.11920166015625
aF92.23681640625
aF90.39208221435547
aF88.58423614501953
aF86.81255340576172
aF85.07630157470703
aF83.3747787475586
aF81.70728302001953
aF80.07313537597656
aF78.47167205810547
aF76.90223693847656
aF75.36419677734375
aF73.8569107055664
aF72.37976837158203
aF70.93217468261719
aF69.51353454589844
aF68.12326049804688
aF66.76079559326172
aF65.42558288574219
aF64.11707305908203
aF62.8347282409668
aF61.578033447265625
aF60.346473693847656
aF59.13954162597656
aF57.95675277709961
aF56.7976188659668
aF55.66166687011719
aF54.548431396484375
aF53.457462310791016
aF52.38831329345703
aF51.34054946899414
aF50.31373596191406
aF49.30746078491211
aF48.321311950683594
aF47.35488510131836
aF46.40778732299805
aF45.47963333129883
aF44.57004165649414
aF43.67863845825195
aF42.8050651550293
aF41.94896697998047
aF41.1099853515625
aF40.287784576416016
aF39.48202896118164
aF38.69239044189453
aF37.918540954589844
aF100.0
aF100.0
aF100.0
aF98.0
aF96.04000091552734
aF94.11920166015625
aF92.23681640625
aF90.39208221435547
aF88.58423614501953
aF86.81255340576172
aF85.07630157470703
aF83.3747787475586
aF81.70728302001953
aF80.07313537597656
aF78.47167205810547
aF76.90223693847656
aF75.36419677734375
aF73.8569107055664
aF72.37976837158203
aF70.93217468261719
aF69.51353454589844
aF68.12326049804688
aF66.76079559326172
aF65.42558288574219
aF64.11707305908203
aF62.8347282409668
aF61.578033447265625
aF60.346473693847656
aF59.13954162597656
aF57.95675277709961
aF56.7976188659668
aF55.66166687011719
aF54.548431396484375
aF53.457462310791016
aF52.38831329345703
aF51.34054946899414
aF50.31373596191406
aF49.30746078491211
aF100.0
aF100.0
aF100.0
aF98.0
aF96.04000091552734
aF94.11920166015625
aF92.23681640625
aF90.39208221435547
aF88.58423614501953
aF86.81255340576172
aF85.07630157470703
aF83.3747787475586
aF81.70728302001953
aF80.07313537597656
aF78.47167205810547
aF76.90223693847656
aF75.36419677734375
aF73.8569107055664
aF72.37976837158203
aF70.93217468261719
aF69.51353454589844
aF68.12326049804688
aF66.76079559326172
aF65.42558288574219
aF64.11707305908203
aF62.8347282409668
aF61.578033447265625
aF60.346473693847656
aF59.13954162597656
aF57.95675277709961
aF56.7976188659668
aF55.66166687011719
aF54.548431396484375
aF53.457462310791016
aF52.38831329345703
aF51.34054946899414
aF50.31373596191406
aF49.30746078491211
aF48.321311950683594
aF47.35488510131836
aF46.40778732299805
aF45.47963333129883
aF44.57004165649414
aF43.67863845825195
aF42.8050651550293
aF41.94896697998047
aF41.1099853515625
aF40.287784576416016
aF39.48202896118164
aF38.69239044189453
aF37.918540954589844
aF37.16017150878906
aF36.416969299316406
aF35.688629150390625
aF34.974857330322266
aF34.275360107421875
aF33.58985137939453
aF32.91805648803711
aF32.25969314575195
aF31.614500045776367
aF30.982210159301758
aF30.362565994262695
aF29.755313873291016
aF29.160207748413086
aF28.577003479003906
aF28.005464553833008
aF27.445354461669922
aF26.896448135375977
aF26.358518600463867
aF25.831348419189453
aF25.314720153808594
aF24.808425903320312
aF24.312257766723633
aF23.826013565063477
aF23.3494930267334
aF22.882503509521484
aF22.42485237121582
aF21.976356506347656
aF21.536828994750977
aF21.10609245300293
aF20.683969497680664
aF20.27029037475586
aF19.864885330200195
aF19.467586517333984
aF19.078235626220703
aF18.696670532226562
aF18.322736740112305
aF17.956283569335938
aF17.597156524658203
aF17.245214462280273
aF16.900310516357422
aF16.56230354309082
aF16.23105812072754
aF15.9064359664917
aF15.58830738067627
aF15.276541709899902
aF14.971010208129883
aF14.671589851379395
aF14.378158569335938
aF14.090595245361328
aF13.808783531188965
aF13.532608032226562
aF13.261955261230469
aF12.996716499328613
aF12.73678207397461
aF12.482046127319336
aF12.232405662536621
aF11.987757682800293
aF11.748002052307129
aF11.513042449951172
aF11.282781600952148
aF11.05712604522705
aF10.835983276367188
aF10.619263648986816
aF10.406878471374512
aF10.19874095916748
aF9.994766235351562
aF9.794870376586914
aF9.598973274230957
aF9.406993865966797
aF9.218853950500488
aF9.034477233886719
aF8.853787422180176
aF8.676711082458496
aF8.503177642822266
aF8.333113670349121
aF8.166451454162598
aF8.003122329711914
aF7.84306001663208
aF7.686198711395264
aF7.532474994659424
aF7.3818254470825195
aF7.234189033508301
aF7.089505195617676
aF6.947714805603027
aF6.808760643005371
aF6.672585487365723
aF6.539133548736572
aF6.408350944519043
aF6.280183792114258
aF6.154580116271973
aF6.03148889541626
aF5.910859107971191
aF5.792641639709473
aF5.676788806915283
aF5.563253402709961
aF5.451988220214844
aF5.3429484367370605
aF5.23608922958374
aF5.1313676834106445
aF5.028740406036377
aF4.928165435791016
aF4.829602241516113
aF4.733010292053223
aF4.638350009918213
aF4.5455827713012695
aF4.454671382904053
aF4.365577697753906
aF4.278266429901123
aF4.1927008628845215
aF4.108846664428711
aF4.026669979095459
aF3.946136474609375
asI2
(lp7
F8.438356399536133
aF8.353973388671875
aF8.27043342590332
aF8.187728881835938
aF8.105851173400879
aF8.024792671203613
aF7.944545269012451
aF7.865099906921387
aF7.786448955535889
aF7.708584308624268
aF7.631498336791992
aF7.555183410644531
aF7.479631423950195
aF7.404835224151611
aF7.33078670501709
aF7.257479190826416
aF7.184904098510742
aF7.113055229187012
aF7.041924476623535
aF6.971505641937256
aF6.901790142059326
aF6.832772254943848
aF6.764444828033447
aF6.696800231933594
aF6.6298322677612305
aF6.563533782958984
aF6.497898578643799
aF6.432919502258301
aF6.368590354919434
aF6.304904460906982
aF6.241855621337891
aF6.179437160491943
aF6.117642402648926
aF6.056466102600098
aF5.995901584625244
aF5.935942649841309
aF5.876583099365234
aF5.817817211151123
aF5.759639263153076
aF5.702042579650879
aF5.645022392272949
aF5.588572025299072
aF5.532686233520508
aF5.477359294891357
aF5.422585964202881
aF5.3683600425720215
aF5.314676284790039
aF5.261529445648193
aF5.208914279937744
aF5.156825065612793
aF5.105257034301758
aF5.05420446395874
aF5.003662109375
aF4.953625679016113
aF4.904089450836182
aF4.855048656463623
aF4.806498050689697
aF4.758432865142822
aF4.710848808288574
aF4.663740158081055
aF4.61710262298584
aF4.570931911468506
aF4.525222301483154
aF4.479970455169678
aF4.435170650482178
aF4.390819072723389
aF4.34691047668457
aF4.303441524505615
aF4.260406970977783
aF4.217803001403809
aF4.175624847412109
aF4.13386869430542
aF4.092530250549316
aF4.051604747772217
aF4.011088848114014
aF3.970977783203125
aF3.9312679767608643
aF3.8919553756713867
aF3.8530359268188477
aF3.8145055770874023
aF3.776360511779785
aF3.7385969161987305
aF3.7012109756469727
aF3.664198637008667
aF3.627556800842285
aF3.5912811756134033
aF3.555368423461914
aF3.5198147296905518
aF3.48461651802063
aF3.449770450592041
aF3.4152727127075195
aF3.381119966506958
aF3.347308874130249
aF3.313835620880127
aF3.2806973457336426
aF3.2478902339935303
aF3.215411424636841
aF3.1832573413848877
aF3.1514246463775635
aF3.119910478591919
aF3.0887115001678467
aF3.0578243732452393
aF3.0272459983825684
aF2.9969735145568848
aF2.96700382232666
aF2.937333822250366
aF2.9079604148864746
aF2.8788809776306152
aF2.8500921726226807
aF2.8215911388397217
aF2.793375253677368
aF2.765441417694092
aF2.7377870082855225
aF2.710409164428711
aF2.683305025100708
aF2.6564719676971436
aF2.6299073696136475
aF2.6036081314086914
aF2.5775721073150635
aF2.5517964363098145
aF2.526278495788574
aF2.5010156631469727
aF2.4760055541992188
aF2.4512455463409424
aF2.4267330169677734
aF2.402465581893921
aF2.378441095352173
aF2.35465669631958
aF2.3311100006103516
aF2.3077988624572754
aF2.2847208976745605
aF2.261873722076416
aF2.239254951477051
aF2.216862440109253
aF2.1946938037872314
aF2.1727468967437744
aF2.151019334793091
aF2.129509210586548
aF2.1082141399383545
aF2.087131977081299
aF2.066260814666748
aF2.045598030090332
aF2.025142192840576
aF2.0048906803131104
aF1.9848418235778809
aF1.9649933576583862
aF1.9453433752059937
aF1.9258899688720703
aF1.9066311120986938
aF1.887564778327942
aF1.8686891794204712
aF1.8500022888183594
aF1.8315021991729736
aF1.8131872415542603
aF1.7950552701950073
aF1.7771047353744507
aF1.7593337297439575
aF1.741740345954895
aF1.724323034286499
aF1.7070797681808472
aF1.6900089979171753
aF1.6731088161468506
aF1.6563777923583984
aF1.639814019203186
aF1.6234158277511597
aF1.6071816682815552
aF1.5911098718643188
aF1.575198769569397
aF1.5594468116760254
aF1.5438523292541504
aF1.5284137725830078
aF1.513129711151123
aF1.4979983568191528
aF1.483018398284912
aF1.4681881666183472
aF1.453506350517273
aF1.4389712810516357
aF1.424581527709961
aF1.4103357791900635
aF1.3962323665618896
aF1.382270097732544
aF1.3684473037719727
aF1.3547629117965698
aF1.3412152528762817
aF1.327803134918213
aF1.3145250082015991
aF1.3013797998428345
aF1.2883659601211548
aF1.2754822969436646
aF1.2627274990081787
aF1.2501002550125122
aF1.23759925365448
aF1.2252233028411865
aF1.2129709720611572
aF1.2008413076400757
aF1.1888328790664673
aF1.176944613456726
aF1.1651750802993774
aF1.153523325920105
aF1.1419881582260132
aF1.130568265914917
aF1.1192625761032104
aF1.108069896697998
aF1.0969892740249634
aF1.0860193967819214
aF1.0751591920852661
aF1.0644075870513916
aF1.053763508796692
aF1.043225884437561
aF1.032793641090393
aF1.022465705871582
aF1.012241005897522
aF1.0021185874938965
aF0.9920974373817444
aF0.9821764230728149
aF0.9723547101020813
aF0.962631106376648
aF0.9530048370361328
aF0.9434747695922852
aF0.9340400099754333
aF0.924699604511261
aF0.9154526591300964
aF0.9062981009483337
aF0.897235095500946
aF0.8882627487182617
aF0.8793801665306091
aF0.8705863356590271
aF0.8618804812431335
aF0.8532616496086121
aF0.8447290658950806
aF0.8362817764282227
aF0.8279189467430115
aF0.8196397423744202
aF0.8114433884620667
aF0.8033289313316345
aF0.7952956557273865
aF0.7873426675796509
aF0.7794692516326904
aF0.7716745734214783
aF0.7639577984809875
aF0.756318211555481
aF0.7487550377845764
aF0.7412675023078918
aF0.7338548302650452
aF0.7265163064002991
aF0.7192510962486267
aF0.7120586037635803
aF0.7049379944801331
aF0.6978886723518372
aF0.690909743309021
aF0.6840006709098816
aF0.6771606802940369
aF0.6703890562057495
aF0.663685142993927
aF0.6570482850074768
aF0.6504778265953064
aF0.6439730525016785
aF0.6375333070755005
aF0.6311579942703247
aF0.6248463988304138
aF0.6185979247093201
aF0.6124119758605957
aF0.6062878370285034
aF0.6002249717712402
aF0.5942227244377136
aF0.5882804989814758
aF0.5823976993560791
aF0.5765737295150757
aF0.570807933807373
aF0.5650998950004578
aF0.5594488978385925
aF0.5538544058799744
aF0.5483158230781555
aF0.5428326725959778
aF0.5374043583869934
aF0.5320303440093994
aF0.526710033416748
aF0.5214428901672363
aF0.5162284970283508
aF0.511066198348999
aF0.5059555172920227
aF0.5008959770202637
aF0.49588704109191895
aF0.49092814326286316
aF0.4860188663005829
aF0.48115867376327515
aF0.47634708881378174
aF0.47158363461494446
aF0.4668678045272827
aF0.4621991217136383
aF0.457577109336853
aF0.45300135016441345
aF0.448471337556839
aF0.4439866244792938
aF0.43954676389694214
aF0.43515127897262573
aF0.43079978227615356
aF0.42649176716804504
aF0.4222268760204315
aF0.4180046021938324
aF0.41382455825805664
aF0.40968629717826843
aF0.40558943152427673
aF0.4015335440635681
aF0.39751821756362915
aF0.3935430347919464
aF0.38960760831832886
aF0.38571152091026306
aF0.38185441493988037
aF0.37803587317466736
aF0.374255508184433
aF0.3705129623413086
aF0.36680781841278076
aF0.3631397485733032
aF0.35950833559036255
aF0.3559132516384125
aF0.35235413908958435
aF0.34883058071136475
aF0.3453422784805298
aF0.3418888449668884
aF0.3384699821472168
aF0.33508527278900146
aF0.33173441886901855
aF0.3284170627593994
aF0.32513290643692017
aF0.32188156247138977
aF0.31866276264190674
aF0.31547611951828003
aF0.31232136487960815
aF0.30919814109802246
aF0.30610617995262146
aF0.3030451238155365
aF0.3000146746635437
aF0.2970145046710968
aF0.2940443754196167
aF0.29110392928123474
aF0.28819289803504944
aF0.2853109538555145
aF0.2824578583240509
aF0.2796332836151123
aF0.27683693170547485
aF0.27406856417655945
aF0.2713278830051422
aF0.26861459016799927
aF0.2659284472465515
aF0.26326918601989746
aF0.26063647866249084
aF0.25803011655807495
aF0.2554498016834259
aF0.252895325422287
aF0.25036635994911194
aF0.24786269664764404
aF0.2453840672969818
aF0.24293023347854614
aF0.24050092697143555
aF0.23809592425823212
aF0.23571495711803436
aF0.23335781693458557
aF0.23102423548698425
aF0.2287139892578125
aF0.2264268547296524
aF0.22416257858276367
aF0.2219209522008896
aF0.21970175206661224
aF0.21750472486019135
aF0.21532967686653137
aF0.21317638456821442
aF0.21104462444782257
aF0.20893417298793793
aF0.20684483647346497
aF0.20477639138698578
aF0.20272861421108246
aF0.20070134103298187
aF0.19869431853294373
aF0.19670738279819489
aF0.19474031031131744
aF0.19279290735721588
aF0.19086496531963348
aF0.18895632028579712
aF0.18706676363945007
aF0.18519608676433563
aF0.18334412574768066
aF0.18151068687438965
aF0.17969557642936707
aF0.17789863049983978
aF0.1761196404695511
aF0.17435844242572784
aF0.17261485755443573
aF0.17088870704174042
aF0.16917982697486877
aF0.16748802363872528
aF0.165813148021698
aF0.1641550213098526
aF0.16251346468925476
aF0.16088832914829254
aF0.1592794507741928
aF0.15768665075302124
aF0.1561097800731659
aF0.15454868972301483
aF0.15300320088863373
aF0.15147316455841064
aF0.14995843172073364
aF0.14845885336399078
aF0.14697426557540894
aF0.14550451934337616
aF0.1440494805574417
aF0.14260898530483246
aF0.14118288457393646
aF0.13977105915546417
aF0.13837334513664246
aF0.13698962330818176
aF100.0
aF100.0
aF100.0
aF99.0
aF98.01000213623047
aF97.02989959716797
aF96.05960083007812
aF95.09900665283203
aF94.14801788330078
aF93.20653533935547
aF92.27446746826172
aF91.35172271728516
aF90.4382095336914
aF89.53382873535156
aF88.63848876953125
aF87.75210571289062
aF86.87458038330078
aF86.0058364868164
aF85.1457748413086
aF84.29431915283203
aF83.45137786865234
aF82.61685943603516
aF81.79069519042969
aF80.97278594970703
aF80.16305541992188
aF79.3614273071289
aF78.56781768798828
aF77.78213500976562
aF77.00431823730469
aF76.23426818847656
aF75.47193145751953
aF74.71720886230469
aF73.97003936767578
aF73.23033905029297
aF72.49803161621094
aF71.77305603027344
aF71.0553207397461
aF70.34477233886719
aF69.64131927490234
aF68.94490814208984
aF68.25546264648438
aF67.57290649414062
aF66.89717864990234
aF66.22820281982422
aF65.56592559814453
aF64.91026306152344
aF64.26116180419922
aF63.61854934692383
aF62.982364654541016
aF62.3525390625
aF61.7290153503418
aF61.111724853515625
aF60.500606536865234
aF59.895599365234375
aF59.29664611816406
aF100.0
aF100.0
aF100.0
aF99.0
aF98.01000213623047
aF97.02989959716797
aF96.05960083007812
aF95.09900665283203
aF94.14801788330078
aF93.20653533935547
aF92.27446746826172
aF91.35172271728516
aF90.4382095336914
aF89.53382873535156
aF88.63848876953125
aF87.75210571289062
aF86.87458038330078
aF86.0058364868164
aF85.1457748413086
aF84.29431915283203
aF83.45137786865234
aF82.61685943603516
aF81.79069519042969
aF80.97278594970703
aF80.16305541992188
aF79.3614273071289
aF78.56781768798828
aF77.78213500976562
aF77.00431823730469
aF76.23426818847656
aF75.47193145751953
aF74.71720886230469
aF73.97003936767578
aF73.23033905029297
aF72.49803161621094
aF71.77305603027344
aF71.0553207397461
aF70.34477233886719
aF69.64131927490234
aF68.94490814208984
aF68.25546264648438
aF67.57290649414062
aF66.89717864990234
aF66.22820281982422
aF65.56592559814453
aF64.91026306152344
aF64.26116180419922
aF63.61854934692383
aF62.982364654541016
aF62.3525390625
aF61.7290153503418
aF61.111724853515625
aF60.500606536865234
aF59.895599365234375
aF59.29664611816406
aF58.703678131103516
aF58.116641998291016
aF57.53547668457031
aF56.960121154785156
aF56.39051818847656
aF55.82661437988281
aF55.268348693847656
aF54.71566390991211
aF54.16850662231445
aF53.62682342529297
aF53.090553283691406
aF52.55965042114258
aF52.034053802490234
aF51.513710021972656
aF50.998573303222656
aF50.488590240478516
aF49.98370361328125
aF49.48386764526367
aF48.98902893066406
aF48.49913787841797
aF48.01414489746094
aF47.53400421142578
aF47.05866241455078
aF46.588077545166016
aF46.122196197509766
aF45.66097640991211
aF45.20436477661133
aF44.752323150634766
aF44.3047981262207
aF43.861751556396484
aF43.423133850097656
aF42.9889030456543
aF42.55901336669922
aF42.1334228515625
aF41.71208953857422
aF41.29496765136719
aF40.88201904296875
aF40.47319793701172
aF40.06846618652344
aF39.667781829833984
aF39.27110290527344
aF38.87839126586914
aF38.48960876464844
aF38.104713439941406
aF37.723663330078125
aF37.34642791748047
aF36.972965240478516
aF36.603233337402344
aF36.23720169067383
aF35.87482833862305
aF35.516082763671875
aF35.160919189453125
aF34.80931091308594
aF34.461219787597656
aF34.116607666015625
aF33.77544021606445
aF33.437686920166016
aF33.103309631347656
aF32.772274017333984
aF32.44455337524414
aF32.1201057434082
aF31.798906326293945
aF31.48091697692871
aF31.166109085083008
aF30.854446411132812
aF30.545902252197266
aF30.24044418334961
aF29.938039779663086
aF29.63865852355957
aF29.34227180480957
aF29.04884910583496
aF28.75836181640625
aF28.47077751159668
aF28.18606948852539
aF27.90420913696289
aF27.625165939331055
aF27.348915100097656
aF27.07542610168457
aF26.804672241210938
aF26.536624908447266
aF26.271259307861328
aF26.008546829223633
aF25.74846076965332
aF25.490976333618164
aF25.236066818237305
aF24.983705520629883
aF24.733867645263672
aF24.486530303955078
aF24.24166488647461
aF23.999248504638672
aF23.75925636291504
aF23.521663665771484
aF23.28644561767578
aF23.05358123779297
aF22.82304573059082
aF22.594816207885742
aF22.368867874145508
aF22.145177841186523
aF21.92372703552246
aF21.70448875427246
aF21.487443923950195
aF21.27256965637207
aF21.059844970703125
aF20.849246978759766
aF20.6407527923584
aF20.434345245361328
aF20.230003356933594
aF20.02770233154297
aF19.827425003051758
aF19.629152297973633
aF19.432859420776367
aF19.2385311126709
aF19.046146392822266
aF18.855684280395508
aF18.66712760925293
aF18.480457305908203
aF18.295652389526367
aF18.112695693969727
aF17.931568145751953
aF17.75225257873535
aF17.574729919433594
aF17.398983001708984
aF17.224992752075195
aF17.052743911743164
aF16.88221549987793
aF16.713394165039062
aF16.5462589263916
aF16.380796432495117
aF16.216989517211914
aF16.054819107055664
aF15.894270896911621
aF15.735328674316406
aF15.577975273132324
aF15.422195434570312
aF15.267972946166992
aF15.115293502807617
aF14.964140892028809
aF14.814498901367188
aF14.666354179382324
aF14.51969051361084
aF14.374493598937988
aF14.230749130249023
aF14.088440895080566
aF13.947556495666504
aF13.80808162689209
aF13.670000076293945
aF13.533300399780273
aF13.397967338562012
aF13.26398754119873
aF13.13134765625
aF13.00003433227539
aF12.870034217834473
aF12.741333961486816
aF12.613920211791992
aF12.487781524658203
aF12.362903594970703
aF12.239274024963379
aF12.116881370544434
aF11.995713233947754
aF11.875755310058594
aF11.756998062133789
aF11.63942813873291
aF11.52303409576416
aF11.407803535461426
aF11.293725967407227
aF11.180788040161133
aF11.06898021697998
aF10.958290100097656
aF10.84870719909668
aF10.74022102355957
aF10.632818222045898
aF10.526490211486816
aF10.421225547790527
aF10.317012786865234
aF10.21384334564209
aF10.11170482635498
aF10.010587692260742
aF9.910481452941895
aF9.811376571655273
aF9.713262557983398
aF9.616129875183105
aF9.51996898651123
aF9.424769401550293
aF9.330521583557129
aF9.237215995788574
aF9.144844055175781
aF9.053396224975586
aF8.962862014770508
aF8.8732328414917
aF8.784501075744629
aF8.696656227111816
aF8.609689712524414
aF8.523591995239258
aF8.438356399536133
aF8.353973388671875
aF8.27043342590332
aF8.187728881835938
aF8.105851173400879
aF8.024792671203613
aF7.944545269012451
aF7.865099906921387
aF7.786448955535889
aF7.708584308624268
aF7.631498336791992
aF7.555183410644531
aF7.479631423950195
aF7.404835224151611
aF7.33078670501709
aF7.257479190826416
aF7.184904098510742
aF7.113055229187012
aF7.041924476623535
aF6.971505641937256
aF6.901790142059326
aF6.832772254943848
aF6.764444828033447
aF6.696800231933594
aF6.6298322677612305
aF6.563533782958984
aF6.497898578643799
aF6.432919502258301
aF6.368590354919434
aF6.304904460906982
aF6.241855621337891
aF6.179437160491943
aF6.117642402648926
aF6.056466102600098
aF5.995901584625244
aF5.935942649841309
aF5.876583099365234
aF5.817817211151123
aF5.759639263153076
aF5.702042579650879
aF5.645022392272949
aF5.588572025299072
aF5.532686233520508
aF5.477359294891357
aF5.422585964202881
aF5.3683600425720215
aF5.314676284790039
aF5.261529445648193
aF5.208914279937744
aF5.156825065612793
aF5.105257034301758
aF5.05420446395874
aF5.003662109375
aF4.953625679016113
aF4.904089450836182
aF4.855048656463623
aF4.806498050689697
aF4.758432865142822
aF4.710848808288574
aF4.663740158081055
aF4.61710262298584
aF4.570931911468506
aF4.525222301483154
aF4.479970455169678
aF4.435170650482178
aF4.390819072723389
aF4.34691047668457
aF4.303441524505615
aF4.260406970977783
aF4.217803001403809
aF4.175624847412109
aF4.13386869430542
aF4.092530250549316
aF4.051604747772217
aF4.011088848114014
aF3.970977783203125
aF3.9312679767608643
aF3.8919553756713867
aF3.8530359268188477
aF3.8145055770874023
aF3.776360511779785
aF3.7385969161987305
aF3.7012109756469727
aF3.664198637008667
aF3.627556800842285
aF3.5912811756134033
aF3.555368423461914
aF3.5198147296905518
aF3.48461651802063
aF3.449770450592041
aF3.4152727127075195
aF3.381119966506958
aF3.347308874130249
aF3.313835620880127
aF3.2806973457336426
aF3.2478902339935303
aF3.215411424636841
aF3.1832573413848877
aF3.1514246463775635
aF3.119910478591919
aF3.0887115001678467
aF3.0578243732452393
aF3.0272459983825684
aF2.9969735145568848
aF2.96700382232666
aF2.937333822250366
aF2.9079604148864746
aF2.8788809776306152
aF2.8500921726226807
aF2.8215911388397217
aF2.793375253677368
aF2.765441417694092
aF2.7377870082855225
aF2.710409164428711
aF2.683305025100708
aF2.6564719676971436
aF2.6299073696136475
aF2.6036081314086914
aF2.5775721073150635
aF2.5517964363098145
aF2.526278495788574
aF2.5010156631469727
aF2.4760055541992188
aF2.4512455463409424
aF2.4267330169677734
aF2.402465581893921
aF2.378441095352173
aF2.35465669631958
aF2.3311100006103516
aF2.3077988624572754
aF2.2847208976745605
aF100.0
aF100.0
aF100.0
aF99.0
aF98.01000213623047
aF97.02989959716797
aF96.05960083007812
aF95.09900665283203
aF94.14801788330078
aF93.20653533935547
aF92.27446746826172
aF91.35172271728516
aF90.4382095336914
aF89.53382873535156
aF88.63848876953125
aF87.75210571289062
aF86.87458038330078
aF86.0058364868164
aF85.1457748413086
aF84.29431915283203
aF83.45137786865234
aF82.61685943603516
aF81.79069519042969
aF80.97278594970703
aF80.16305541992188
aF79.3614273071289
aF78.56781768798828
aF77.78213500976562
aF77.00431823730469
aF76.23426818847656
aF75.47193145751953
aF74.71720886230469
aF73.97003936767578
aF73.23033905029297
aF72.49803161621094
aF71.77305603027344
aF71.0553207397461
aF70.34477233886719
aF69.64131927490234
aF68.94490814208984
aF68.25546264648438
aF67.57290649414062
aF66.89717864990234
aF66.22820281982422
aF65.56592559814453
aF64.91026306152344
aF64.26116180419922
aF63.61854934692383
aF62.982364654541016
aF62.3525390625
aF61.7290153503418
aF61.111724853515625
aF60.500606536865234
aF59.895599365234375
aF100.0
aF100.0
aF100.0
aF99.0
aF98.01000213623047
aF97.02989959716797
aF96.05960083007812
aF95.09900665283203
aF94.14801788330078
aF93.20653533935547
aF92.27446746826172
aF91.35172271728516
aF90.4382095336914
aF89.53382873535156
aF88.63848876953125
aF87.75210571289062
aF86.87458038330078
aF86.0058364868164
aF85.1457748413086
aF84.29431915283203
aF83.45137786865234
aF82.61685943603516
aF81.79069519042969
aF80.97278594970703
aF80.16305541992188
aF79.3614273071289
aF78.56781768798828
aF77.78213500976562
aF77.00431823730469
aF76.23426818847656
aF75.47193145751953
aF74.71720886230469
aF73.97003936767578
aF73.23033905029297
aF72.49803161621094
aF71.77305603027344
aF71.0553207397461
aF70.34477233886719
aF69.64131927490234
aF68.94490814208984
aF68.25546264648438
aF67.57290649414062
aF66.89717864990234
aF66.22820281982422
aF65.56592559814453
aF64.91026306152344
aF64.26116180419922
aF63.61854934692383
aF62.982364654541016
aF62.3525390625
aF61.7290153503418
aF61.111724853515625
aF60.500606536865234
aF59.895599365234375
aF59.29664611816406
aF58.703678131103516
aF58.116641998291016
aF57.53547668457031
aF56.960121154785156
aF56.39051818847656
aF55.82661437988281
aF55.268348693847656
aF54.71566390991211
aF54.16850662231445
aF53.62682342529297
aF53.090553283691406
aF52.55965042114258
aF52.034053802490234
aF51.513710021972656
aF50.998573303222656
aF50.488590240478516
aF49.98370361328125
aF49.48386764526367
aF48.98902893066406
aF48.49913787841797
aF48.01414489746094
aF47.53400421142578
aF47.05866241455078
aF46.588077545166016
aF46.122196197509766
aF45.66097640991211
aF45.20436477661133
aF44.752323150634766
aF44.3047981262207
aF43.861751556396484
aF43.423133850097656
aF42.9889030456543
aF42.55901336669922
aF42.1334228515625
aF41.71208953857422
aF41.29496765136719
aF40.88201904296875
aF40.47319793701172
aF40.06846618652344
aF39.667781829833984
aF39.27110290527344
aF38.87839126586914
aF38.48960876464844
aF38.104713439941406
aF37.723663330078125
aF37.34642791748047
aF36.972965240478516
aF36.603233337402344
aF36.23720169067383
aF35.87482833862305
aF35.516082763671875
aF35.160919189453125
aF34.80931091308594
aF34.461219787597656
aF34.116607666015625
aF33.77544021606445
aF33.437686920166016
aF33.103309631347656
aF32.772274017333984
aF32.44455337524414
aF32.1201057434082
aF31.798906326293945
aF31.48091697692871
aF31.166109085083008
aF30.854446411132812
aF30.545902252197266
aF30.24044418334961
aF29.938039779663086
aF29.63865852355957
aF29.34227180480957
aF29.04884910583496
aF28.75836181640625
aF28.47077751159668
aF28.18606948852539
aF27.90420913696289
aF27.625165939331055
aF27.348915100097656
aF27.07542610168457
aF26.804672241210938
aF26.536624908447266
aF26.271259307861328
aF26.008546829223633
aF25.74846076965332
aF25.490976333618164
aF25.236066818237305
aF24.983705520629883
aF24.733867645263672
aF24.486530303955078
aF24.24166488647461
aF23.999248504638672
aF23.75925636291504
aF23.521663665771484
aF23.28644561767578
aF23.05358123779297
aF22.82304573059082
aF22.594816207885742
aF22.368867874145508
aF22.145177841186523
aF21.92372703552246
aF21.70448875427246
aF21.487443923950195
aF21.27256965637207
aF21.059844970703125
aF20.849246978759766
aF20.6407527923584
aF20.434345245361328
aF20.230003356933594
aF20.02770233154297
aF19.827425003051758
aF19.629152297973633
aF19.432859420776367
aF19.2385311126709
aF19.046146392822266
aF18.855684280395508
aF18.66712760925293
aF18.480457305908203
aF18.295652389526367
aF18.112695693969727
aF17.931568145751953
aF17.75225257873535
aF17.574729919433594
aF17.398983001708984
aF17.224992752075195
aF17.052743911743164
aF16.88221549987793
aF16.713394165039062
aF16.5462589263916
aF16.380796432495117
aF16.216989517211914
aF16.054819107055664
aF15.894270896911621
aF15.735328674316406
aF15.577975273132324
aF15.422195434570312
aF15.267972946166992
aF15.115293502807617
aF14.964140892028809
aF14.814498901367188
aF14.666354179382324
aF14.51969051361084
aF14.374493598937988
aF14.230749130249023
aF14.088440895080566
aF13.947556495666504
aF13.80808162689209
aF13.670000076293945
aF13.533300399780273
aF13.397967338562012
aF13.26398754119873
aF13.13134765625
aF13.00003433227539
aF12.870034217834473
aF12.741333961486816
aF12.613920211791992
aF12.487781524658203
aF12.362903594970703
aF12.239274024963379
aF12.116881370544434
aF11.995713233947754
aF11.875755310058594
aF11.756998062133789
aF11.63942813873291
aF11.52303409576416
aF11.407803535461426
aF11.293725967407227
aF11.180788040161133
aF11.06898021697998
aF10.958290100097656
aF10.84870719909668
aF10.74022102355957
aF10.632818222045898
aF10.526490211486816
aF10.421225547790527
aF10.317012786865234
aF10.21384334564209
aF10.11170482635498
aF10.010587692260742
aF9.910481452941895
aF9.811376571655273
aF9.713262557983398
aF9.616129875183105
aF9.51996898651123
aF9.424769401550293
aF9.330521583557129
aF9.237215995788574
aF9.144844055175781
aF9.053396224975586
aF8.962862014770508
aF8.8732328414917
aF8.784501075744629
aF8.696656227111816
aF8.609689712524414
aF8.523591995239258
aF8.438356399536133
aF8.353973388671875
aF8.27043342590332
aF8.187728881835938
aF8.105851173400879
aF8.024792671203613
aF7.944545269012451
aF7.865099906921387
aF7.786448955535889
aF7.708584308624268
aF7.631498336791992
aF7.555183410644531
aF7.479631423950195
aF7.404835224151611
aF7.33078670501709
aF7.257479190826416
aF7.184904098510742
aF7.113055229187012
aF7.041924476623535
aF6.971505641937256
aF6.901790142059326
aF6.832772254943848
aF6.764444828033447
aF6.696800231933594
aF6.6298322677612305
aF6.563533782958984
aF6.497898578643799
aF6.432919502258301
aF6.368590354919434
aF6.304904460906982
aF6.241855621337891
aF6.179437160491943
aF6.117642402648926
aF6.056466102600098
aF5.995901584625244
aF5.935942649841309
aF5.876583099365234
aF5.817817211151123
aF5.759639263153076
aF5.702042579650879
aF5.645022392272949
aF5.588572025299072
aF5.532686233520508
aF5.477359294891357
aF5.422585964202881
aF5.3683600425720215
aF5.314676284790039
aF5.261529445648193
aF5.208914279937744
aF5.156825065612793
aF5.105257034301758
aF5.05420446395874
aF5.003662109375
aF4.953625679016113
aF4.904089450836182
aF4.855048656463623
aF4.806498050689697
aF4.758432865142822
aF4.710848808288574
aF4.663740158081055
aF4.61710262298584
aF4.570931911468506
aF4.525222301483154
aF4.479970455169678
aF4.435170650482178
aF4.390819072723389
aF4.34691047668457
aF4.303441524505615
aF4.260406970977783
aF4.217803001403809
aF4.175624847412109
aF4.13386869430542
aF4.092530250549316
aF4.051604747772217
aF4.011088848114014
aF3.970977783203125
aF3.9312679767608643
aF3.8919553756713867
aF3.8530359268188477
aF3.8145055770874023
aF3.776360511779785
aF3.7385969161987305
aF3.7012109756469727
aF3.664198637008667
aF3.627556800842285
aF3.5912811756134033
aF3.555368423461914
aF3.5198147296905518
aF3.48461651802063
aF3.449770450592041
aF3.4152727127075195
aF3.381119966506958
aF3.347308874130249
aF3.313835620880127
aF3.2806973457336426
aF3.2478902339935303
aF3.215411424636841
aF3.1832573413848877
aF3.1514246463775635
aF3.119910478591919
aF3.0887115001678467
aF3.0578243732452393
aF3.0272459983825684
aF2.9969735145568848
aF2.96700382232666
aF2.937333822250366
aF2.9079604148864746
aF2.8788809776306152
aF2.8500921726226807
aF2.8215911388397217
aF2.793375253677368
aF2.765441417694092
aF2.7377870082855225
aF2.710409164428711
aF2.683305025100708
aF2.6564719676971436
aF2.6299073696136475
aF2.6036081314086914
aF2.5775721073150635
aF2.5517964363098145
aF2.526278495788574
aF2.5010156631469727
aF2.4760055541992188
aF2.4512455463409424
aF2.4267330169677734
aF2.402465581893921
aF2.378441095352173
aF2.35465669631958
aF2.3311100006103516
aF2.3077988624572754
aF2.2847208976745605
aF2.261873722076416
aF2.239254951477051
aF2.216862440109253
aF2.1946938037872314
aF2.1727468967437744
aF2.151019334793091
aF2.129509210586548
aF2.1082141399383545
aF2.087131977081299
aF2.066260814666748
aF2.045598030090332
aF2.025142192840576
aF2.0048906803131104
aF1.9848418235778809
aF1.9649933576583862
aF1.9453433752059937
aF1.9258899688720703
aF1.9066311120986938
aF1.887564778327942
aF1.8686891794204712
aF1.8500022888183594
aF1.8315021991729736
aF100.0
aF100.0
aF100.0
aF99.0
aF98.01000213623047
aF97.02989959716797
aF96.05960083007812
aF95.09900665283203
aF94.14801788330078
aF93.20653533935547
aF92.27446746826172
aF91.35172271728516
aF90.4382095336914
aF89.53382873535156
aF88.63848876953125
aF87.75210571289062
aF86.87458038330078
aF86.0058364868164
aF85.1457748413086
aF84.29431915283203
aF83.45137786865234
aF82.61685943603516
aF81.79069519042969
aF80.97278594970703
aF80.16305541992188
aF79.3614273071289
aF78.56781768798828
aF77.78213500976562
aF77.00431823730469
aF76.23426818847656
aF75.47193145751953
aF74.71720886230469
aF73.97003936767578
aF73.23033905029297
aF72.49803161621094
aF71.77305603027344
aF71.0553207397461
aF70.34477233886719
aF69.64131927490234
aF68.94490814208984
aF68.25546264648438
aF67.57290649414062
aF66.89717864990234
aF66.22820281982422
aF65.56592559814453
aF64.91026306152344
aF64.26116180419922
aF63.61854934692383
aF62.982364654541016
aF62.3525390625
aF61.7290153503418
aF61.111724853515625
aF60.500606536865234
aF59.895599365234375
aF59.29664611816406
aF100.0
aF100.0
aF100.0
aF99.0
aF98.01000213623047
aF97.02989959716797
aF96.05960083007812
aF95.09900665283203
aF94.14801788330078
aF93.20653533935547
aF92.27446746826172
aF91.35172271728516
aF90.4382095336914
aF89.53382873535156
aF88.63848876953125
aF87.75210571289062
aF86.87458038330078
aF86.0058364868164
aF85.1457748413086
aF84.29431915283203
aF83.45137786865234
aF82.61685943603516
aF81.79069519042969
aF80.97278594970703
aF80.16305541992188
aF79.3614273071289
aF78.56781768798828
aF77.78213500976562
aF77.00431823730469
aF76.23426818847656
aF75.47193145751953
aF74.71720886230469
aF73.97003936767578
aF73.23033905029297
aF72.49803161621094
aF71.77305603027344
aF71.0553207397461
aF70.34477233886719
aF69.64131927490234
aF68.94490814208984
aF68.25546264648438
aF67.57290649414062
aF66.89717864990234
aF66.22820281982422
aF65.56592559814453
aF64.91026306152344
aF64.26116180419922
aF63.61854934692383
aF62.982364654541016
aF62.3525390625
aF61.7290153503418
aF61.111724853515625
aF60.500606536865234
aF59.895599365234375
aF59.29664611816406
aF58.703678131103516
aF58.116641998291016
aF57.53547668457031
aF56.960121154785156
aF56.39051818847656
aF55.82661437988281
aF55.268348693847656
aF54.71566390991211
aF54.16850662231445
aF53.62682342529297
aF53.090553283691406
aF52.55965042114258
aF52.034053802490234
aF51.513710021972656
aF50.998573303222656
aF50.488590240478516
aF49.98370361328125
aF49.48386764526367
aF48.98902893066406
aF48.49913787841797
aF48.01414489746094
aF47.53400421142578
aF47.05866241455078
aF46.588077545166016
aF46.122196197509766
aF45.66097640991211
aF45.20436477661133
aF44.752323150634766
aF44.3047981262207
aF43.861751556396484
aF43.423133850097656
aF42.9889030456543
aF42.55901336669922
aF42.1334228515625
aF41.71208953857422
aF41.29496765136719
aF40.88201904296875
aF40.47319793701172
aF40.06846618652344
aF39.667781829833984
aF39.27110290527344
aF38.87839126586914
aF38.48960876464844
aF38.104713439941406
aF37.723663330078125
aF37.34642791748047
aF36.972965240478516
aF36.603233337402344
aF36.23720169067383
aF35.87482833862305
aF35.516082763671875
aF35.160919189453125
aF34.80931091308594
aF34.461219787597656
aF34.116607666015625
aF33.77544021606445
aF33.437686920166016
aF33.103309631347656
aF32.772274017333984
aF32.44455337524414
aF32.1201057434082
aF31.798906326293945
aF31.48091697692871
aF31.166109085083008
aF30.854446411132812
aF30.545902252197266
aF30.24044418334961
aF29.938039779663086
aF29.63865852355957
aF29.34227180480957
aF29.04884910583496
aF28.75836181640625
aF28.47077751159668
aF28.18606948852539
aF27.90420913696289
aF27.625165939331055
aF27.348915100097656
aF27.07542610168457
aF26.804672241210938
aF26.536624908447266
aF26.271259307861328
aF26.008546829223633
aF25.74846076965332
aF25.490976333618164
aF25.236066818237305
aF24.983705520629883
aF24.733867645263672
aF24.486530303955078
aF24.24166488647461
aF23.999248504638672
aF23.75925636291504
aF23.521663665771484
aF23.28644561767578
aF23.05358123779297
aF22.82304573059082
aF22.594816207885742
aF22.368867874145508
aF22.145177841186523
aF21.92372703552246
aF21.70448875427246
aF21.487443923950195
aF21.27256965637207
aF21.059844970703125
aF20.849246978759766
aF20.6407527923584
aF20.434345245361328
aF20.230003356933594
aF20.02770233154297
aF19.827425003051758
aF19.629152297973633
aF19.432859420776367
aF19.2385311126709
aF19.046146392822266
aF18.855684280395508
aF18.66712760925293
aF18.480457305908203
aF18.295652389526367
aF18.112695693969727
aF17.931568145751953
aF17.75225257873535
aF17.574729919433594
aF17.398983001708984
aF17.224992752075195
aF17.052743911743164
aF16.88221549987793
aF16.713394165039062
aF16.5462589263916
aF16.380796432495117
aF16.216989517211914
aF16.054819107055664
aF15.894270896911621
aF15.735328674316406
aF15.577975273132324
aF15.422195434570312
aF15.267972946166992
aF15.115293502807617
aF14.964140892028809
aF14.814498901367188
aF14.666354179382324
aF14.51969051361084
aF14.374493598937988
aF14.230749130249023
aF14.088440895080566
aF13.947556495666504
aF13.80808162689209
aF13.670000076293945
aF13.533300399780273
aF13.397967338562012
aF13.26398754119873
aF13.13134765625
aF13.00003433227539
aF12.870034217834473
aF12.741333961486816
aF12.613920211791992
aF12.487781524658203
aF12.362903594970703
aF12.239274024963379
aF12.116881370544434
aF11.995713233947754
aF11.875755310058594
aF11.756998062133789
aF11.63942813873291
aF11.52303409576416
aF11.407803535461426
aF11.293725967407227
aF11.180788040161133
aF11.06898021697998
aF10.958290100097656
aF10.84870719909668
aF10.74022102355957
aF10.632818222045898
aF10.526490211486816
aF10.421225547790527
aF10.317012786865234
aF10.21384334564209
aF10.11170482635498
aF10.010587692260742
aF9.910481452941895
aF9.811376571655273
aF9.713262557983398
aF9.616129875183105
aF9.51996898651123
aF9.424769401550293
aF9.330521583557129
aF9.237215995788574
aF9.144844055175781
aF9.053396224975586
aF8.962862014770508
aF8.8732328414917
aF8.784501075744629
aF8.696656227111816
aF8.609689712524414
aF8.523591995239258
aF8.438356399536133
aF8.353973388671875
aF8.27043342590332
aF8.187728881835938
aF8.105851173400879
aF8.024792671203613
aF7.944545269012451
aF7.865099906921387
aF7.786448955535889
aF7.708584308624268
aF7.631498336791992
aF7.555183410644531
aF7.479631423950195
aF7.404835224151611
aF7.33078670501709
aF7.257479190826416
aF7.184904098510742
aF7.113055229187012
aF7.041924476623535
aF6.971505641937256
aF6.901790142059326
aF6.832772254943848
aF6.764444828033447
aF6.696800231933594
aF6.6298322677612305
aF6.563533782958984
aF6.497898578643799
aF6.432919502258301
aF6.368590354919434
aF6.304904460906982
aF6.241855621337891
aF6.179437160491943
aF6.117642402648926
aF6.056466102600098
aF5.995901584625244
aF5.935942649841309
aF5.876583099365234
aF5.817817211151123
aF5.759639263153076
aF5.702042579650879
aF5.645022392272949
aF5.588572025299072
aF5.532686233520508
aF5.477359294891357
aF5.422585964202881
aF5.3683600425720215
aF5.314676284790039
aF5.261529445648193
aF5.208914279937744
aF5.156825065612793
aF5.105257034301758
aF5.05420446395874
aF5.003662109375
aF4.953625679016113
aF4.904089450836182
aF4.855048656463623
aF4.806498050689697
aF4.758432865142822
aF4.710848808288574
aF4.663740158081055
aF4.61710262298584
aF4.570931911468506
aF4.525222301483154
aF4.479970455169678
aF4.435170650482178
aF4.390819072723389
aF4.34691047668457
aF4.303441524505615
aF4.260406970977783
aF4.217803001403809
aF4.175624847412109
aF4.13386869430542
aF4.092530250549316
aF4.051604747772217
aF4.011088848114014
aF3.970977783203125
aF3.9312679767608643
aF3.8919553756713867
aF3.8530359268188477
aF3.8145055770874023
aF3.776360511779785
aF3.7385969161987305
aF3.7012109756469727
aF3.664198637008667
aF3.627556800842285
aF3.5912811756134033
aF3.555368423461914
aF3.5198147296905518
aF3.48461651802063
aF3.449770450592041
aF3.4152727127075195
aF3.381119966506958
aF3.347308874130249
aF3.313835620880127
aF3.2806973457336426
aF3.2478902339935303
aF3.215411424636841
aF3.1832573413848877
aF3.1514246463775635
aF3.119910478591919
aF3.0887115001678467
aF3.0578243732452393
aF3.0272459983825684
aF2.9969735145568848
aF2.96700382232666
aF2.937333822250366
aF2.9079604148864746
aF2.8788809776306152
aF2.8500921726226807
aF2.8215911388397217
aF2.793375253677368
aF2.765441417694092
aF2.7377870082855225
aF2.710409164428711
aF2.683305025100708
aF2.6564719676971436
aF2.6299073696136475
aF2.6036081314086914
aF2.5775721073150635
aF2.5517964363098145
aF2.526278495788574
aF2.5010156631469727
aF2.4760055541992188
aF2.4512455463409424
aF2.4267330169677734
aF2.402465581893921
aF2.378441095352173
aF2.35465669631958
aF2.3311100006103516
aF2.3077988624572754
aF2.2847208976745605
aF2.261873722076416
aF2.239254951477051
aF2.216862440109253
aF2.1946938037872314
aF2.1727468967437744
aF2.151019334793091
aF2.129509210586548
aF2.1082141399383545
aF2.087131977081299
aF2.066260814666748
aF2.045598030090332
aF2.025142192840576
aF2.0048906803131104
aF1.9848418235778809
aF1.9649933576583862
aF1.9453433752059937
aF1.9258899688720703
aF1.9066311120986938
aF1.887564778327942
aF1.8686891794204712
aF1.8500022888183594
aF1.8315021991729736
aF1.8131872415542603
aF1.7950552701950073
aF1.7771047353744507
aF1.7593337297439575
aF1.741740345954895
aF1.724323034286499
aF1.7070797681808472
aF100.0
aF100.0
aF100.0
aF99.0
aF98.01000213623047
aF97.02989959716797
aF96.05960083007812
aF95.09900665283203
aF94.14801788330078
aF93.20653533935547
aF92.27446746826172
aF91.35172271728516
aF90.4382095336914
aF89.53382873535156
aF88.63848876953125
aF87.75210571289062
aF86.87458038330078
aF86.0058364868164
aF85.1457748413086
aF84.29431915283203
aF83.45137786865234
aF82.61685943603516
aF81.79069519042969
aF80.97278594970703
aF80.16305541992188
aF79.3614273071289
aF78.56781768798828
aF77.78213500976562
aF77.00431823730469
aF76.23426818847656
aF75.47193145751953
aF74.71720886230469
aF73.97003936767578
aF73.23033905029297
aF72.49803161621094
aF71.77305603027344
aF71.0553207397461
aF70.34477233886719
aF69.64131927490234
aF68.94490814208984
aF68.25546264648438
aF67.57290649414062
aF66.89717864990234
aF66.22820281982422
aF65.56592559814453
aF64.91026306152344
aF64.26116180419922
aF63.61854934692383
aF62.982364654541016
aF62.3525390625
aF61.7290153503418
aF61.111724853515625
aF60.500606536865234
aF59.895599365234375
aF59.29664611816406
aF100.0
aF100.0
aF100.0
aF99.0
aF98.01000213623047
aF97.02989959716797
aF96.05960083007812
aF95.09900665283203
aF94.14801788330078
aF93.20653533935547
aF92.27446746826172
aF91.35172271728516
aF90.4382095336914
aF89.53382873535156
aF88.63848876953125
aF87.75210571289062
aF86.87458038330078
aF86.0058364868164
aF85.1457748413086
aF84.29431915283203
aF83.45137786865234
aF82.61685943603516
aF81.79069519042969
aF80.97278594970703
aF80.16305541992188
aF79.3614273071289
aF78.56781768798828
aF77.78213500976562
aF77.00431823730469
aF76.23426818847656
aF75.47193145751953
aF74.71720886230469
aF73.97003936767578
aF73.23033905029297
aF72.49803161621094
aF71.77305603027344
aF71.0553207397461
aF70.34477233886719
aF69.64131927490234
aF68.94490814208984
aF68.25546264648438
aF67.57290649414062
aF66.89717864990234
aF66.22820281982422
aF65.56592559814453
aF64.91026306152344
aF64.26116180419922
aF63.61854934692383
aF62.982364654541016
aF62.3525390625
aF61.7290153503418
aF61.111724853515625
aF60.500606536865234
aF59.895599365234375
aF59.29664611816406
aF58.703678131103516
aF58.116641998291016
aF57.53547668457031
aF56.960121154785156
aF56.39051818847656
aF55.82661437988281
aF55.268348693847656
aF54.71566390991211
aF54.16850662231445
aF53.62682342529297
aF53.090553283691406
aF52.55965042114258
aF52.034053802490234
aF51.513710021972656
aF50.998573303222656
aF50.488590240478516
aF49.98370361328125
aF49.48386764526367
aF48.98902893066406
aF48.49913787841797
aF48.01414489746094
aF47.53400421142578
aF47.05866241455078
aF46.588077545166016
aF46.122196197509766
aF45.66097640991211
aF45.20436477661133
aF44.752323150634766
aF44.3047981262207
aF43.861751556396484
aF43.423133850097656
aF42.9889030456543
aF42.55901336669922
aF42.1334228515625
aF41.71208953857422
aF41.29496765136719
aF40.88201904296875
aF40.47319793701172
aF40.06846618652344
aF39.667781829833984
aF39.27110290527344
aF38.87839126586914
aF38.48960876464844
aF38.104713439941406
aF37.723663330078125
aF37.34642791748047
aF36.972965240478516
aF36.603233337402344
aF36.23720169067383
aF35.87482833862305
aF35.516082763671875
aF35.160919189453125
aF34.80931091308594
aF34.461219787597656
aF34.116607666015625
aF33.77544021606445
aF33.437686920166016
aF33.103309631347656
aF32.772274017333984
aF32.44455337524414
aF32.1201057434082
aF31.798906326293945
aF31.48091697692871
aF31.166109085083008
aF30.854446411132812
aF30.545902252197266
aF30.24044418334961
aF29.938039779663086
aF29.63865852355957
aF29.34227180480957
aF29.04884910583496
aF28.75836181640625
aF28.47077751159668
aF28.18606948852539
aF27.90420913696289
aF27.625165939331055
aF27.348915100097656
aF27.07542610168457
aF26.804672241210938
aF26.536624908447266
aF26.271259307861328
aF26.008546829223633
aF25.74846076965332
aF25.490976333618164
aF25.236066818237305
aF24.983705520629883
aF24.733867645263672
aF24.486530303955078
aF24.24166488647461
aF23.999248504638672
aF23.75925636291504
aF23.521663665771484
aF23.28644561767578
aF23.05358123779297
aF22.82304573059082
aF22.594816207885742
aF22.368867874145508
aF22.145177841186523
aF21.92372703552246
aF21.70448875427246
aF21.487443923950195
aF21.27256965637207
aF21.059844970703125
aF20.849246978759766
aF20.6407527923584
aF20.434345245361328
aF20.230003356933594
aF20.02770233154297
aF19.827425003051758
aF19.629152297973633
aF19.432859420776367
aF19.2385311126709
aF19.046146392822266
aF18.855684280395508
aF18.66712760925293
aF18.480457305908203
aF18.295652389526367
aF18.112695693969727
aF17.931568145751953
aF17.75225257873535
aF17.574729919433594
aF17.398983001708984
aF17.224992752075195
aF17.052743911743164
aF16.88221549987793
aF16.713394165039062
aF16.5462589263916
asI3
(lp8
F33.698341369628906
aF33.529850006103516
aF33.36220169067383
aF33.19538879394531
aF33.02941131591797
aF32.86426544189453
aF32.69994354248047
aF32.53644561767578
aF32.37376022338867
aF32.211891174316406
aF32.05083465576172
aF31.890579223632812
aF31.73112678527832
aF31.572471618652344
aF31.414608001708984
aF31.257535934448242
aF31.101247787475586
aF30.945741653442383
aF30.791013717651367
aF30.63705825805664
aF30.48387336730957
aF30.331453323364258
aF30.17979621887207
aF30.02889633178711
aF29.878751754760742
aF29.729358673095703
aF29.580711364746094
aF29.43280792236328
aF29.28564453125
aF29.13921546936035
aF28.993520736694336
aF28.848552703857422
aF28.704309463500977
aF28.560787200927734
aF28.417984008789062
aF28.275894165039062
aF28.13451385498047
aF27.99384307861328
aF27.853872299194336
aF27.714603424072266
aF27.576030731201172
aF27.43815040588379
aF27.300960540771484
aF27.16445541381836
aF27.02863311767578
aF26.893489837646484
aF26.759021759033203
aF26.625226974487305
aF26.492101669311523
aF26.35964012145996
aF26.227842330932617
aF26.096702575683594
aF25.966218948364258
aF25.836387634277344
aF25.70720672607422
aF25.578670501708984
aF25.450777053833008
aF25.323522567749023
aF25.1969051361084
aF25.070920944213867
aF24.945566177368164
aF24.820838928222656
aF24.696733474731445
aF24.57324981689453
aF24.45038414001465
aF24.32813262939453
aF24.206491470336914
aF24.085458755493164
aF23.96503257751465
aF23.84520721435547
aF23.725980758666992
aF23.607351303100586
aF23.489315032958984
aF23.371868133544922
aF23.255008697509766
aF23.13873291015625
aF23.023038864135742
aF22.90792465209961
aF22.793384552001953
aF22.679418563842773
aF22.566020965576172
aF22.453189849853516
aF22.340925216674805
aF22.229219436645508
aF22.118074417114258
aF22.007484436035156
aF21.897445678710938
aF21.7879581451416
aF21.679019927978516
aF21.57062339782715
aF21.462770462036133
aF21.355457305908203
aF21.248680114746094
aF21.142436981201172
aF21.036724090576172
aF20.931541442871094
aF20.82688331604004
aF20.722747802734375
aF20.6191349029541
aF20.51603889465332
aF20.4134578704834
aF20.311391830444336
aF20.209835052490234
aF20.10878562927246
aF20.008241653442383
aF19.908199310302734
aF19.808658599853516
aF19.70961570739746
aF19.611068725585938
aF19.513011932373047
aF19.415447235107422
aF19.318370819091797
aF19.221778869628906
aF19.125669479370117
aF19.030040740966797
aF18.934890747070312
aF18.8402156829834
aF18.746015548706055
aF18.652284622192383
aF18.559024810791016
aF18.466228485107422
aF18.373897552490234
aF18.282028198242188
aF18.19061851501465
aF18.09966468811035
aF18.009166717529297
aF17.91912078857422
aF17.829524993896484
aF17.74037742614746
aF17.651676177978516
aF17.563417434692383
aF17.47559928894043
aF17.388221740722656
aF17.301280975341797
aF17.21477508544922
aF17.128700256347656
aF17.04305648803711
aF16.957841873168945
aF16.8730525970459
aF16.788686752319336
aF16.704744338989258
aF16.621219635009766
aF16.538114547729492
aF16.45542335510254
aF16.373146057128906
aF16.29128074645996
aF16.209823608398438
aF16.128774642944336
aF16.048131942749023
aF15.967890739440918
aF15.88805103302002
aF15.808610916137695
aF15.729567527770996
aF15.650919914245605
aF15.572665214538574
aF15.494802474975586
aF15.417327880859375
aF15.340241432189941
aF15.263540267944336
aF15.187222480773926
aF15.111286163330078
aF15.035730361938477
aF14.960551261901855
aF14.885748863220215
aF14.811320304870605
aF14.737263679504395
aF14.66357707977295
aF14.590259552001953
aF14.517308235168457
aF14.444721221923828
aF14.37249755859375
aF14.30063533782959
aF14.229131698608398
aF14.157986640930176
aF14.087196350097656
aF14.01676082611084
aF13.946676254272461
aF13.876943588256836
aF13.8075590133667
aF13.738520622253418
aF13.669828414916992
aF13.601478576660156
aF13.533472061157227
aF13.465804100036621
aF13.398475646972656
aF13.331482887268066
aF13.264825820922852
aF13.198501586914062
aF13.132509231567383
aF13.066845893859863
aF13.00151252746582
aF12.936504364013672
aF12.871822357177734
aF12.807462692260742
aF12.743425369262695
aF12.679708480834961
aF12.616310119628906
aF12.553228378295898
aF12.490462303161621
aF12.428009986877441
aF12.365869522094727
aF12.304040908813477
aF12.242520332336426
aF12.181307792663574
aF12.120401382446289
aF12.059799194335938
aF11.999500274658203
aF11.939502716064453
aF11.879805564880371
aF11.820405960083008
aF11.761303901672363
aF11.702497482299805
aF11.6439847946167
aF11.58576488494873
aF11.527835845947266
aF11.470196723937988
aF11.412846565246582
aF11.355781555175781
aF11.299002647399902
aF11.242507934570312
aF11.186295509338379
aF11.130364418029785
aF11.074711799621582
aF11.019338607788086
aF10.964241981506348
aF10.90942096710205
aF10.854873657226562
aF10.800599098205566
aF10.746596336364746
aF10.692863464355469
aF10.639398574829102
aF10.586201667785645
aF10.533270835876465
aF10.48060417175293
aF10.428201675415039
aF10.376060485839844
aF10.324180603027344
aF10.27255916595459
aF10.221196174621582
aF10.170090675354004
aF10.119239807128906
aF10.068643569946289
aF10.018301010131836
aF9.968209266662598
aF9.918368339538574
aF9.868776321411133
aF9.819432258605957
aF9.77033519744873
aF9.72148323059082
aF9.672876358032227
aF9.62451171875
aF9.57638931274414
aF9.528507232666016
aF9.480864524841309
aF9.433460235595703
aF9.386293411254883
aF9.339361190795898
aF9.292664527893066
aF9.246201515197754
aF9.199970245361328
aF9.153970718383789
aF9.108201026916504
aF9.062660217285156
aF9.017346382141113
aF8.972259521484375
aF8.927398681640625
aF8.882761001586914
aF8.838347434997559
aF8.794156074523926
aF8.750185012817383
aF8.70643424987793
aF8.662901878356934
aF8.619587898254395
aF8.576489448547363
aF8.533607482910156
aF8.490939140319824
aF8.448484420776367
aF8.406242370605469
aF8.364211082458496
aF8.322389602661133
aF8.280777931213379
aF8.239374160766602
aF8.198177337646484
aF8.157186508178711
aF8.116399765014648
aF8.075818061828613
aF8.035439491271973
aF7.995262145996094
aF7.955285549163818
aF7.915509223937988
aF7.875931739807129
aF7.836552143096924
aF7.797369003295898
aF7.758382320404053
aF7.719590663909912
aF7.680992603302002
aF7.642587661743164
aF7.604374408721924
aF7.566352844238281
aF7.5285210609436035
aF7.490878582000732
aF7.453423976898193
aF7.416156768798828
aF7.37907600402832
aF7.3421807289123535
aF7.305469989776611
aF7.268942356109619
aF7.232597827911377
aF7.19643497467041
aF7.160452365875244
aF7.124650478363037
aF7.089026927947998
aF7.053581714630127
aF7.018313884735107
aF6.983222484588623
aF6.948306560516357
aF6.913564682006836
aF6.878996849060059
aF6.844602108001709
aF6.8103790283203125
aF6.776327133178711
aF6.742445468902588
aF6.708733081817627
aF6.67518949508667
aF6.6418137550354
aF6.608604431152344
aF6.5755615234375
aF6.5426836013793945
aF6.509970188140869
aF6.477420330047607
aF6.445033550262451
aF6.412807941436768
aF6.380743980407715
aF6.348840236663818
aF6.31709623336792
aF6.285510540008545
aF6.254083156585693
aF6.222812652587891
aF6.1916985511779785
aF6.160740375518799
aF6.129936695098877
aF6.099287033081055
aF6.068790435791016
aF6.038446426391602
aF6.008254051208496
aF5.978212833404541
aF5.94832181930542
aF5.918580055236816
aF5.8889875411987305
aF5.859542369842529
aF5.830244541168213
aF5.801093578338623
aF5.772088050842285
aF5.743227481842041
aF5.714511394500732
aF5.685938835144043
aF5.6575093269348145
aF5.629221439361572
aF5.601075649261475
aF5.573070049285889
aF5.5452046394348145
aF5.517478942871094
aF5.489891529083252
aF5.462441921234131
aF5.435129642486572
aF5.407954216003418
aF5.380914211273193
aF5.354009628295898
aF5.327239513397217
aF5.30060338973999
aF5.274100303649902
aF5.247729778289795
aF5.22149133682251
aF5.1953840255737305
aF5.169406890869141
aF5.14355993270874
aF5.117842197418213
aF5.092252731323242
aF5.066791534423828
aF5.041457653045654
aF5.0162506103515625
aF4.991168975830078
aF4.966213226318359
aF4.94138240814209
aF4.916675090789795
aF4.892091751098633
aF4.867631435394287
aF4.843293190002441
aF4.819077014923096
aF4.794981479644775
aF4.7710065841674805
aF4.7471513748168945
aF4.723415851593018
aF4.699798583984375
aF4.676299571990967
aF4.652918338775635
aF4.629653453826904
aF4.606505393981934
aF4.583472728729248
aF4.560555458068848
aF4.537752628326416
aF4.515063762664795
aF4.492488384246826
aF4.470026016235352
aF4.447676181793213
aF4.4254374504089355
aF4.403310298919678
aF4.381293773651123
aF4.359387397766113
aF4.33759069442749
aF4.3159027099609375
aF4.294322967529297
aF4.272851467132568
aF4.2514872550964355
aF4.23022985458374
aF4.209078788757324
aF4.188033103942871
aF4.167092800140381
aF4.146257400512695
aF4.125526428222656
aF4.104898452758789
aF4.084373950958252
aF4.063952445983887
aF4.043632507324219
aF100.0
aF100.0
aF100.0
aF99.5
aF99.00250244140625
aF98.50748443603516
aF98.01495361328125
aF97.52487182617188
aF97.0372543334961
aF96.55206298828125
aF96.06930541992188
aF95.58895874023438
aF95.11101531982422
aF94.63545989990234
aF94.16227722167969
aF93.69146728515625
aF93.22301483154297
aF92.75689697265625
aF92.2931137084961
aF91.83164978027344
aF91.37248992919922
aF90.9156265258789
aF90.46104431152344
aF90.00874328613281
aF89.55870056152344
aF89.11090850830078
aF88.66535186767578
aF88.2220230102539
aF87.78091430664062
aF87.34201049804688
aF86.9052963256836
aF86.47077178955078
aF86.03842163085938
aF85.60823059082031
aF85.18018341064453
aF84.75428771972656
aF84.33051300048828
aF83.90885925292969
aF83.48931884765625
aF83.07186889648438
aF82.65650939941406
aF82.24322509765625
aF81.8320083618164
aF81.4228515625
aF81.01573944091797
aF80.61065673828125
aF80.20760345458984
aF79.80656433105469
aF79.40753173828125
aF79.010498046875
aF78.61544799804688
aF78.22236633300781
aF77.83125305175781
aF77.44210052490234
aF77.05488586425781
aF76.66961669921875
aF76.28627014160156
aF75.90483856201172
aF75.52531433105469
aF75.1476821899414
aF74.77194213867188
aF74.39808654785156
aF74.02609252929688
aF73.65596771240234
aF73.28768920898438
aF72.92124938964844
aF72.556640625
aF72.19385528564453
aF71.8328857421875
aF71.47372436523438
aF71.1163558959961
aF70.76077270507812
aF70.40696716308594
aF70.054931640625
aF69.70465850830078
aF69.35614013671875
aF69.00935363769531
aF68.664306640625
aF68.32099151611328
aF67.97938537597656
aF67.63948822021484
aF67.30128479003906
aF66.96478271484375
aF66.62995910644531
aF66.29680633544922
aF65.96532440185547
aF65.635498046875
aF65.30731964111328
aF64.98078155517578
aF64.65587615966797
aF64.33260345458984
aF64.01094055175781
aF63.69088363647461
aF63.37242889404297
aF63.055564880371094
aF62.74028778076172
aF62.42658615112305
aF62.11445236206055
aF61.80388259887695
aF61.4948616027832
aF61.1873893737793
aF60.88145065307617
aF60.57704544067383
aF60.2741584777832
aF59.97278594970703
aF59.67292404174805
aF59.37455749511719
aF59.07768630981445
aF58.78229904174805
aF58.48838806152344
aF58.195945739746094
aF57.904964447021484
aF57.615440368652344
aF57.327362060546875
aF57.04072570800781
aF56.755523681640625
aF56.471744537353516
aF56.18938446044922
aF55.90843963623047
aF55.62889862060547
aF55.35075378417969
aF55.073997497558594
aF54.79862976074219
aF54.524635314941406
aF54.252010345458984
aF53.980751037597656
aF53.71084976196289
aF53.44229507446289
aF53.17508316040039
aF52.90920639038086
aF52.64466094970703
aF52.381439208984375
aF52.119529724121094
aF51.85893249511719
aF51.599639892578125
aF51.34164047241211
aF51.084930419921875
aF50.829505920410156
aF50.57535934448242
aF50.32248306274414
aF50.07086944580078
aF49.82051467895508
aF49.571414947509766
aF49.32355499267578
aF49.07693862915039
aF48.8315544128418
aF48.58739471435547
aF48.344459533691406
aF48.10273742675781
aF47.86222457885742
aF47.6229133605957
aF47.384796142578125
aF47.14787292480469
aF46.91213607788086
aF46.677574157714844
aF46.44418716430664
aF46.21196365356445
aF45.98090362548828
aF45.750999450683594
aF45.522247314453125
aF45.29463577270508
aF45.06816101074219
aF44.84281921386719
aF44.61860656738281
aF44.395511627197266
aF44.17353439331055
aF43.952667236328125
aF43.732906341552734
aF43.51424026489258
aF43.296669006347656
aF43.08018493652344
aF42.864784240722656
aF42.65045928955078
aF42.43721008300781
aF42.22502136230469
aF42.01389694213867
aF41.803829193115234
aF41.594810485839844
aF41.38683319091797
aF41.179901123046875
aF40.9739990234375
aF40.76913070678711
aF40.565284729003906
aF40.362457275390625
aF40.160648345947266
aF39.959842681884766
aF39.76004409790039
aF39.56124496459961
aF39.36343765258789
aF39.166622161865234
aF38.970787048339844
aF38.77593231201172
aF38.582054138183594
aF38.38914489746094
aF38.19719696044922
aF38.00621032714844
aF37.81618118286133
aF37.627098083496094
aF37.43896484375
aF37.25177001953125
aF37.06550979614258
aF36.880184173583984
aF36.69578170776367
aF36.51230239868164
aF36.329742431640625
aF36.148094177246094
aF35.96735382080078
aF35.78751754760742
aF35.608577728271484
aF35.43053436279297
aF35.25338363647461
aF35.07711410522461
aF34.901729583740234
aF34.72722244262695
aF34.553585052490234
aF34.38081741333008
aF34.20891189575195
aF34.03786849975586
aF33.867679595947266
aF33.698341369628906
aF33.529850006103516
aF33.36220169067383
aF33.19538879394531
aF33.02941131591797
aF32.86426544189453
aF32.69994354248047
aF32.53644561767578
aF32.37376022338867
aF32.211891174316406
aF32.05083465576172
aF31.890579223632812
aF31.73112678527832
aF31.572471618652344
aF31.414608001708984
aF31.257535934448242
aF31.101247787475586
aF30.945741653442383
aF30.791013717651367
aF30.63705825805664
aF30.48387336730957
aF30.331453323364258
aF30.17979621887207
aF30.02889633178711
aF29.878751754760742
aF29.729358673095703
aF29.580711364746094
aF29.43280792236328
aF29.28564453125
aF29.13921546936035
aF28.993520736694336
aF28.848552703857422
aF28.704309463500977
aF28.560787200927734
aF28.417984008789062
aF28.275894165039062
aF28.13451385498047
aF27.99384307861328
aF27.853872299194336
aF27.714603424072266
aF27.576030731201172
aF27.43815040588379
aF27.300960540771484
aF27.16445541381836
aF27.02863311767578
aF26.893489837646484
aF26.759021759033203
aF26.625226974487305
aF26.492101669311523
aF26.35964012145996
aF26.227842330932617
aF26.096702575683594
aF25.966218948364258
aF25.836387634277344
aF25.70720672607422
aF25.578670501708984
aF25.450777053833008
aF25.323522567749023
aF25.1969051361084
aF25.070920944213867
aF24.945566177368164
aF24.820838928222656
aF24.696733474731445
aF24.57324981689453
aF24.45038414001465
aF24.32813262939453
aF24.206491470336914
aF24.085458755493164
aF23.96503257751465
aF23.84520721435547
aF23.725980758666992
aF23.607351303100586
aF23.489315032958984
aF23.371868133544922
aF23.255008697509766
aF23.13873291015625
aF23.023038864135742
aF22.90792465209961
aF22.793384552001953
aF22.679418563842773
aF22.566020965576172
aF22.453189849853516
aF22.340925216674805
aF22.229219436645508
aF22.118074417114258
aF22.007484436035156
aF21.897445678710938
aF21.7879581451416
aF21.679019927978516
aF21.57062339782715
aF21.462770462036133
aF21.355457305908203
aF21.248680114746094
aF21.142436981201172
aF21.036724090576172
aF20.931541442871094
aF20.82688331604004
aF20.722747802734375
aF20.6191349029541
aF20.51603889465332
aF20.4134578704834
aF20.311391830444336
aF20.209835052490234
aF20.10878562927246
aF20.008241653442383
aF19.908199310302734
aF19.808658599853516
aF19.70961570739746
aF19.611068725585938
aF19.513011932373047
aF19.415447235107422
aF19.318370819091797
aF19.221778869628906
aF19.125669479370117
aF19.030040740966797
aF18.934890747070312
aF18.8402156829834
aF18.746015548706055
aF18.652284622192383
aF18.559024810791016
aF18.466228485107422
aF18.373897552490234
aF18.282028198242188
aF18.19061851501465
aF18.09966468811035
aF18.009166717529297
aF17.91912078857422
aF17.829524993896484
aF17.74037742614746
aF17.651676177978516
aF17.563417434692383
aF17.47559928894043
aF17.388221740722656
aF17.301280975341797
aF17.21477508544922
aF17.128700256347656
aF17.04305648803711
aF16.957841873168945
aF16.8730525970459
aF16.788686752319336
aF16.704744338989258
aF16.621219635009766
aF16.538114547729492
aF16.45542335510254
aF16.373146057128906
aF16.29128074645996
aF16.209823608398438
aF16.128774642944336
aF16.048131942749023
aF15.967890739440918
aF15.88805103302002
aF15.808610916137695
aF15.729567527770996
aF15.650919914245605
aF15.572665214538574
aF15.494802474975586
aF15.417327880859375
aF15.340241432189941
aF15.263540267944336
aF15.187222480773926
aF15.111286163330078
aF15.035730361938477
aF14.960551261901855
aF14.885748863220215
aF14.811320304870605
aF14.737263679504395
aF14.66357707977295
aF14.590259552001953
aF14.517308235168457
aF14.444721221923828
aF14.37249755859375
aF14.30063533782959
aF14.229131698608398
aF14.157986640930176
aF14.087196350097656
aF14.01676082611084
aF13.946676254272461
aF13.876943588256836
aF13.8075590133667
aF13.738520622253418
aF13.669828414916992
aF13.601478576660156
aF13.533472061157227
aF13.465804100036621
aF13.398475646972656
aF13.331482887268066
aF13.264825820922852
aF13.198501586914062
aF13.132509231567383
aF13.066845893859863
aF13.00151252746582
aF12.936504364013672
aF12.871822357177734
aF12.807462692260742
aF12.743425369262695
aF12.679708480834961
aF12.616310119628906
aF12.553228378295898
aF12.490462303161621
aF12.428009986877441
aF12.365869522094727
aF12.304040908813477
aF12.242520332336426
aF12.181307792663574
aF12.120401382446289
aF12.059799194335938
aF11.999500274658203
aF11.939502716064453
aF11.879805564880371
aF11.820405960083008
aF11.761303901672363
aF11.702497482299805
aF11.6439847946167
aF11.58576488494873
aF100.0
aF100.0
aF100.0
aF99.5
aF99.00250244140625
aF98.50748443603516
aF98.01495361328125
aF97.52487182617188
aF97.0372543334961
aF96.55206298828125
aF96.06930541992188
aF95.58895874023438
aF95.11101531982422
aF94.63545989990234
aF94.16227722167969
aF93.69146728515625
aF93.22301483154297
aF92.75689697265625
aF92.2931137084961
aF91.83164978027344
aF91.37248992919922
aF90.9156265258789
aF90.46104431152344
aF90.00874328613281
aF89.55870056152344
aF89.11090850830078
aF88.66535186767578
aF88.2220230102539
aF87.78091430664062
aF87.34201049804688
aF86.9052963256836
aF86.47077178955078
aF86.03842163085938
aF85.60823059082031
aF85.18018341064453
aF84.75428771972656
aF84.33051300048828
aF83.90885925292969
aF83.48931884765625
aF83.07186889648438
aF82.65650939941406
aF82.24322509765625
aF81.8320083618164
aF81.4228515625
aF81.01573944091797
aF80.61065673828125
aF80.20760345458984
aF79.80656433105469
aF79.40753173828125
aF79.010498046875
aF78.61544799804688
aF78.22236633300781
aF77.83125305175781
aF77.44210052490234
aF77.05488586425781
aF76.66961669921875
aF76.28627014160156
aF75.90483856201172
aF75.52531433105469
aF75.1476821899414
aF74.77194213867188
aF74.39808654785156
aF74.02609252929688
aF73.65596771240234
aF73.28768920898438
aF72.92124938964844
aF72.556640625
aF72.19385528564453
aF71.8328857421875
aF71.47372436523438
aF71.1163558959961
aF70.76077270507812
aF70.40696716308594
aF70.054931640625
aF69.70465850830078
aF69.35614013671875
aF69.00935363769531
aF68.664306640625
aF68.32099151611328
aF67.97938537597656
aF67.63948822021484
aF67.30128479003906
aF66.96478271484375
aF66.62995910644531
aF66.29680633544922
aF65.96532440185547
aF65.635498046875
aF65.30731964111328
aF64.98078155517578
aF64.65587615966797
aF64.33260345458984
aF64.01094055175781
aF63.69088363647461
aF63.37242889404297
aF63.055564880371094
aF62.74028778076172
aF62.42658615112305
aF62.11445236206055
aF61.80388259887695
aF61.4948616027832
aF61.1873893737793
aF60.88145065307617
aF60.57704544067383
aF60.2741584777832
aF59.97278594970703
aF59.67292404174805
aF59.37455749511719
aF59.07768630981445
aF58.78229904174805
aF58.48838806152344
aF58.195945739746094
aF57.904964447021484
aF57.615440368652344
aF57.327362060546875
aF57.04072570800781
aF56.755523681640625
aF56.471744537353516
aF56.18938446044922
aF55.90843963623047
aF55.62889862060547
aF55.35075378417969
aF55.073997497558594
aF54.79862976074219
aF54.524635314941406
aF54.252010345458984
aF53.980751037597656
aF53.71084976196289
aF53.44229507446289
aF53.17508316040039
aF52.90920639038086
aF52.64466094970703
aF52.381439208984375
aF52.119529724121094
aF51.85893249511719
aF51.599639892578125
aF51.34164047241211
aF51.084930419921875
aF50.829505920410156
aF50.57535934448242
aF50.32248306274414
aF50.07086944580078
aF49.82051467895508
aF49.571414947509766
aF49.32355499267578
aF49.07693862915039
aF48.8315544128418
aF48.58739471435547
aF48.344459533691406
aF48.10273742675781
aF47.86222457885742
aF47.6229133605957
aF47.384796142578125
aF47.14787292480469
aF46.91213607788086
aF46.677574157714844
aF46.44418716430664
aF46.21196365356445
aF45.98090362548828
aF45.750999450683594
aF45.522247314453125
aF45.29463577270508
aF45.06816101074219
aF44.84281921386719
aF44.61860656738281
aF44.395511627197266
aF44.17353439331055
aF43.952667236328125
aF43.732906341552734
aF43.51424026489258
aF43.296669006347656
aF43.08018493652344
aF42.864784240722656
aF42.65045928955078
aF42.43721008300781
aF42.22502136230469
aF42.01389694213867
aF41.803829193115234
aF41.594810485839844
aF41.38683319091797
aF41.179901123046875
aF40.9739990234375
aF40.76913070678711
aF40.565284729003906
aF40.362457275390625
aF40.160648345947266
aF39.959842681884766
aF39.76004409790039
aF39.56124496459961
aF39.36343765258789
aF39.166622161865234
aF38.970787048339844
aF38.77593231201172
aF38.582054138183594
aF38.38914489746094
aF38.19719696044922
aF38.00621032714844
aF37.81618118286133
aF37.627098083496094
aF37.43896484375
aF37.25177001953125
aF37.06550979614258
aF36.880184173583984
aF36.69578170776367
aF36.51230239868164
aF36.329742431640625
aF36.148094177246094
aF35.96735382080078
aF35.78751754760742
aF35.608577728271484
aF35.43053436279297
aF35.25338363647461
aF35.07711410522461
aF34.901729583740234
aF34.72722244262695
aF34.553585052490234
aF34.38081741333008
aF34.20891189575195
aF34.03786849975586
aF33.867679595947266
aF33.698341369628906
aF33.529850006103516
aF33.36220169067383
aF33.19538879394531
aF33.02941131591797
aF32.86426544189453
aF32.69994354248047
aF32.53644561767578
aF32.37376022338867
aF32.211891174316406
aF32.05083465576172
aF31.890579223632812
aF31.73112678527832
aF31.572471618652344
aF31.414608001708984
aF31.257535934448242
aF31.101247787475586
aF30.945741653442383
aF30.791013717651367
aF30.63705825805664
aF30.48387336730957
aF30.331453323364258
aF30.17979621887207
aF30.02889633178711
aF29.878751754760742
aF29.729358673095703
aF29.580711364746094
aF29.43280792236328
aF29.28564453125
aF29.13921546936035
aF28.993520736694336
aF28.848552703857422
aF28.704309463500977
aF28.560787200927734
aF28.417984008789062
aF28.275894165039062
aF28.13451385498047
aF27.99384307861328
aF27.853872299194336
aF27.714603424072266
aF27.576030731201172
aF27.43815040588379
aF27.300960540771484
aF27.16445541381836
aF27.02863311767578
aF26.893489837646484
aF26.759021759033203
aF26.625226974487305
aF26.492101669311523
aF26.35964012145996
aF26.227842330932617
aF26.096702575683594
aF25.966218948364258
aF25.836387634277344
aF25.70720672607422
aF25.578670501708984
aF25.450777053833008
aF25.323522567749023
aF25.1969051361084
aF25.070920944213867
aF24.945566177368164
aF24.820838928222656
aF24.696733474731445
aF24.57324981689453
aF24.45038414001465
aF24.32813262939453
aF24.206491470336914
aF24.085458755493164
aF23.96503257751465
aF23.84520721435547
aF23.725980758666992
aF23.607351303100586
aF23.489315032958984
aF23.371868133544922
aF23.255008697509766
aF23.13873291015625
aF23.023038864135742
aF22.90792465209961
aF22.793384552001953
aF22.679418563842773
aF22.566020965576172
aF22.453189849853516
aF22.340925216674805
aF22.229219436645508
aF22.118074417114258
aF22.007484436035156
aF21.897445678710938
aF21.7879581451416
aF21.679019927978516
aF21.57062339782715
aF21.462770462036133
aF21.355457305908203
aF21.248680114746094
aF21.142436981201172
aF21.036724090576172
aF20.931541442871094
aF20.82688331604004
aF20.722747802734375
aF20.6191349029541
aF20.51603889465332
aF20.4134578704834
aF20.311391830444336
aF20.209835052490234
aF20.10878562927246
aF20.008241653442383
aF19.908199310302734
aF19.808658599853516
aF19.70961570739746
aF19.611068725585938
aF19.513011932373047
aF19.415447235107422
aF19.318370819091797
aF19.221778869628906
aF19.125669479370117
aF19.030040740966797
aF18.934890747070312
aF18.8402156829834
aF18.746015548706055
aF18.652284622192383
aF18.559024810791016
aF18.466228485107422
aF18.373897552490234
aF18.282028198242188
aF18.19061851501465
aF18.09966468811035
aF18.009166717529297
aF17.91912078857422
aF17.829524993896484
aF17.74037742614746
aF17.651676177978516
aF17.563417434692383
aF17.47559928894043
aF17.388221740722656
aF17.301280975341797
aF17.21477508544922
aF17.128700256347656
aF17.04305648803711
aF16.957841873168945
aF16.8730525970459
aF16.788686752319336
aF16.704744338989258
aF16.621219635009766
aF16.538114547729492
aF16.45542335510254
aF16.373146057128906
aF16.29128074645996
aF16.209823608398438
aF16.128774642944336
aF16.048131942749023
aF15.967890739440918
aF15.88805103302002
aF15.808610916137695
aF15.729567527770996
aF15.650919914245605
aF15.572665214538574
aF15.494802474975586
aF15.417327880859375
aF15.340241432189941
aF15.263540267944336
aF15.187222480773926
aF15.111286163330078
aF15.035730361938477
aF14.960551261901855
aF14.885748863220215
aF14.811320304870605
aF14.737263679504395
aF14.66357707977295
aF14.590259552001953
aF14.517308235168457
aF14.444721221923828
aF14.37249755859375
aF14.30063533782959
aF14.229131698608398
aF14.157986640930176
aF14.087196350097656
aF14.01676082611084
aF13.946676254272461
aF13.876943588256836
aF13.8075590133667
aF13.738520622253418
aF13.669828414916992
aF13.601478576660156
aF13.533472061157227
aF13.465804100036621
aF13.398475646972656
aF13.331482887268066
aF13.264825820922852
aF13.198501586914062
aF13.132509231567383
aF13.066845893859863
aF13.00151252746582
aF12.936504364013672
aF12.871822357177734
aF12.807462692260742
aF12.743425369262695
aF12.679708480834961
aF12.616310119628906
aF12.553228378295898
aF12.490462303161621
aF12.428009986877441
aF12.365869522094727
aF12.304040908813477
aF12.242520332336426
aF12.181307792663574
aF12.120401382446289
aF12.059799194335938
aF11.999500274658203
aF11.939502716064453
aF11.879805564880371
aF11.820405960083008
aF11.761303901672363
aF11.702497482299805
aF11.6439847946167
aF11.58576488494873
aF11.527835845947266
aF11.470196723937988
aF11.412846565246582
aF11.355781555175781
aF11.299002647399902
aF11.242507934570312
aF11.186295509338379
aF11.130364418029785
aF11.074711799621582
aF11.019338607788086
aF10.964241981506348
aF10.90942096710205
aF10.854873657226562
aF10.800599098205566
aF10.746596336364746
aF10.692863464355469
aF10.639398574829102
aF10.586201667785645
aF10.533270835876465
aF10.48060417175293
aF10.428201675415039
aF10.376060485839844
aF10.324180603027344
aF100.0
aF100.0
aF100.0
aF99.5
aF99.00250244140625
aF98.50748443603516
aF98.01495361328125
aF97.52487182617188
aF97.0372543334961
aF96.55206298828125
aF96.06930541992188
aF95.58895874023438
aF95.11101531982422
aF94.63545989990234
aF94.16227722167969
aF93.69146728515625
aF93.22301483154297
aF92.75689697265625
aF92.2931137084961
aF91.83164978027344
aF91.37248992919922
aF90.9156265258789
aF90.46104431152344
aF90.00874328613281
aF89.55870056152344
aF89.11090850830078
aF88.66535186767578
aF88.2220230102539
aF87.78091430664062
aF87.34201049804688
aF86.9052963256836
aF86.47077178955078
aF86.03842163085938
aF85.60823059082031
aF85.18018341064453
aF84.75428771972656
aF84.33051300048828
aF83.90885925292969
aF83.48931884765625
aF83.07186889648438
aF82.65650939941406
aF82.24322509765625
aF81.8320083618164
aF81.4228515625
aF81.01573944091797
aF80.61065673828125
aF80.20760345458984
aF79.80656433105469
aF79.40753173828125
aF79.010498046875
aF78.61544799804688
aF78.22236633300781
aF77.83125305175781
aF77.44210052490234
aF77.05488586425781
aF76.66961669921875
aF76.28627014160156
aF75.90483856201172
aF75.52531433105469
aF75.1476821899414
aF74.77194213867188
aF74.39808654785156
aF74.02609252929688
aF73.65596771240234
aF73.28768920898438
aF72.92124938964844
aF72.556640625
aF72.19385528564453
aF71.8328857421875
aF71.47372436523438
aF71.1163558959961
aF70.76077270507812
aF70.40696716308594
aF70.054931640625
aF69.70465850830078
aF69.35614013671875
aF69.00935363769531
aF68.664306640625
aF68.32099151611328
aF67.97938537597656
aF67.63948822021484
aF67.30128479003906
aF66.96478271484375
aF66.62995910644531
aF66.29680633544922
aF65.96532440185547
aF65.635498046875
aF65.30731964111328
aF64.98078155517578
aF64.65587615966797
aF64.33260345458984
aF64.01094055175781
aF63.69088363647461
aF63.37242889404297
aF63.055564880371094
aF62.74028778076172
aF62.42658615112305
aF62.11445236206055
aF61.80388259887695
aF61.4948616027832
aF61.1873893737793
aF60.88145065307617
aF60.57704544067383
aF60.2741584777832
aF59.97278594970703
aF59.67292404174805
aF59.37455749511719
aF59.07768630981445
aF58.78229904174805
aF58.48838806152344
aF58.195945739746094
aF57.904964447021484
aF57.615440368652344
aF57.327362060546875
aF57.04072570800781
aF56.755523681640625
aF56.471744537353516
aF56.18938446044922
aF55.90843963623047
aF55.62889862060547
aF55.35075378417969
aF55.073997497558594
aF54.79862976074219
aF54.524635314941406
aF54.252010345458984
aF53.980751037597656
aF53.71084976196289
aF53.44229507446289
aF53.17508316040039
aF52.90920639038086
aF52.64466094970703
aF52.381439208984375
aF52.119529724121094
aF51.85893249511719
aF51.599639892578125
aF51.34164047241211
aF51.084930419921875
aF50.829505920410156
aF50.57535934448242
aF50.32248306274414
aF50.07086944580078
aF49.82051467895508
aF49.571414947509766
aF49.32355499267578
aF49.07693862915039
aF48.8315544128418
aF48.58739471435547
aF48.344459533691406
aF48.10273742675781
aF47.86222457885742
aF47.6229133605957
aF47.384796142578125
aF47.14787292480469
aF46.91213607788086
aF46.677574157714844
aF46.44418716430664
aF46.21196365356445
aF45.98090362548828
aF45.750999450683594
aF45.522247314453125
aF45.29463577270508
aF45.06816101074219
aF44.84281921386719
aF44.61860656738281
aF44.395511627197266
aF44.17353439331055
aF43.952667236328125
aF43.732906341552734
aF43.51424026489258
aF43.296669006347656
aF43.08018493652344
aF42.864784240722656
aF42.65045928955078
aF42.43721008300781
aF42.22502136230469
aF42.01389694213867
aF41.803829193115234
aF41.594810485839844
aF41.38683319091797
aF41.179901123046875
aF40.9739990234375
aF40.76913070678711
aF40.565284729003906
aF40.362457275390625
aF40.160648345947266
aF39.959842681884766
aF39.76004409790039
aF39.56124496459961
aF39.36343765258789
aF39.166622161865234
aF38.970787048339844
aF38.77593231201172
aF38.582054138183594
aF38.38914489746094
aF38.19719696044922
aF38.00621032714844
aF37.81618118286133
aF37.627098083496094
aF37.43896484375
aF37.25177001953125
aF37.06550979614258
aF36.880184173583984
aF36.69578170776367
aF36.51230239868164
aF36.329742431640625
aF36.148094177246094
aF35.96735382080078
aF35.78751754760742
aF35.608577728271484
aF35.43053436279297
aF35.25338363647461
aF35.07711410522461
aF34.901729583740234
aF34.72722244262695
aF34.553585052490234
aF34.38081741333008
aF34.20891189575195
aF34.03786849975586
aF33.867679595947266
aF33.698341369628906
aF33.529850006103516
aF33.36220169067383
aF33.19538879394531
aF33.02941131591797
aF32.86426544189453
aF32.69994354248047
aF32.53644561767578
aF32.37376022338867
aF32.211891174316406
aF32.05083465576172
aF31.890579223632812
aF31.73112678527832
aF31.572471618652344
aF31.414608001708984
aF31.257535934448242
aF31.101247787475586
aF30.945741653442383
aF30.791013717651367
aF30.63705825805664
aF30.48387336730957
aF30.331453323364258
aF30.17979621887207
aF30.02889633178711
aF29.878751754760742
aF29.729358673095703
aF29.580711364746094
aF29.43280792236328
aF29.28564453125
aF29.13921546936035
aF28.993520736694336
aF28.848552703857422
aF28.704309463500977
aF28.560787200927734
aF28.417984008789062
aF28.275894165039062
aF28.13451385498047
aF27.99384307861328
aF27.853872299194336
aF27.714603424072266
aF27.576030731201172
aF27.43815040588379
aF27.300960540771484
aF27.16445541381836
aF27.02863311767578
aF26.893489837646484
aF26.759021759033203
aF26.625226974487305
aF26.492101669311523
aF26.35964012145996
aF26.227842330932617
aF26.096702575683594
aF25.966218948364258
aF25.836387634277344
aF25.70720672607422
aF25.578670501708984
aF25.450777053833008
aF25.323522567749023
aF25.1969051361084
aF25.070920944213867
aF24.945566177368164
aF24.820838928222656
aF24.696733474731445
aF24.57324981689453
aF24.45038414001465
aF24.32813262939453
aF24.206491470336914
aF24.085458755493164
aF23.96503257751465
aF23.84520721435547
aF23.725980758666992
aF23.607351303100586
aF23.489315032958984
aF23.371868133544922
aF23.255008697509766
aF23.13873291015625
aF23.023038864135742
aF22.90792465209961
aF22.793384552001953
aF22.679418563842773
aF22.566020965576172
aF22.453189849853516
aF22.340925216674805
aF22.229219436645508
aF22.118074417114258
aF22.007484436035156
aF21.897445678710938
aF21.7879581451416
aF21.679019927978516
aF21.57062339782715
aF21.462770462036133
aF21.355457305908203
aF21.248680114746094
aF21.142436981201172
aF21.036724090576172
aF20.931541442871094
aF20.82688331604004
aF20.722747802734375
aF20.6191349029541
aF20.51603889465332
aF20.4134578704834
aF20.311391830444336
aF20.209835052490234
aF20.10878562927246
aF20.008241653442383
aF19.908199310302734
aF19.808658599853516
aF19.70961570739746
aF19.611068725585938
aF19.513011932373047
aF19.415447235107422
aF19.318370819091797
aF19.221778869628906
aF19.125669479370117
aF19.030040740966797
aF18.934890747070312
aF18.8402156829834
aF18.746015548706055
aF18.652284622192383
aF18.559024810791016
aF18.466228485107422
aF18.373897552490234
aF18.282028198242188
aF18.19061851501465
aF18.09966468811035
aF18.009166717529297
aF17.91912078857422
aF17.829524993896484
aF17.74037742614746
aF17.651676177978516
aF17.563417434692383
aF17.47559928894043
aF17.388221740722656
aF17.301280975341797
aF17.21477508544922
aF17.128700256347656
aF17.04305648803711
aF16.957841873168945
aF16.8730525970459
aF16.788686752319336
aF16.704744338989258
aF16.621219635009766
aF16.538114547729492
aF16.45542335510254
aF16.373146057128906
aF16.29128074645996
aF16.209823608398438
aF16.128774642944336
aF16.048131942749023
aF15.967890739440918
aF15.88805103302002
aF15.808610916137695
aF15.729567527770996
aF15.650919914245605
aF15.572665214538574
aF15.494802474975586
aF15.417327880859375
aF15.340241432189941
aF15.263540267944336
aF15.187222480773926
aF15.111286163330078
aF15.035730361938477
aF14.960551261901855
aF14.885748863220215
aF14.811320304870605
aF14.737263679504395
aF14.66357707977295
aF14.590259552001953
aF14.517308235168457
aF14.444721221923828
aF14.37249755859375
aF14.30063533782959
aF14.229131698608398
aF14.157986640930176
aF14.087196350097656
aF14.01676082611084
aF13.946676254272461
aF13.876943588256836
aF13.8075590133667
aF13.738520622253418
aF13.669828414916992
aF13.601478576660156
aF13.533472061157227
aF13.465804100036621
aF13.398475646972656
aF13.331482887268066
aF13.264825820922852
aF13.198501586914062
aF13.132509231567383
aF13.066845893859863
aF13.00151252746582
aF12.936504364013672
aF12.871822357177734
aF12.807462692260742
aF12.743425369262695
aF12.679708480834961
aF12.616310119628906
aF12.553228378295898
aF12.490462303161621
aF12.428009986877441
aF12.365869522094727
aF12.304040908813477
aF12.242520332336426
aF12.181307792663574
aF12.120401382446289
aF12.059799194335938
aF11.999500274658203
aF11.939502716064453
aF11.879805564880371
aF11.820405960083008
aF11.761303901672363
aF11.702497482299805
aF11.6439847946167
aF11.58576488494873
aF11.527835845947266
aF11.470196723937988
aF11.412846565246582
aF11.355781555175781
aF11.299002647399902
aF11.242507934570312
aF11.186295509338379
aF11.130364418029785
aF11.074711799621582
aF11.019338607788086
aF10.964241981506348
aF10.90942096710205
aF10.854873657226562
aF10.800599098205566
aF10.746596336364746
aF10.692863464355469
aF10.639398574829102
aF10.586201667785645
aF10.533270835876465
aF10.48060417175293
aF10.428201675415039
aF10.376060485839844
aF10.324180603027344
aF10.27255916595459
aF10.221196174621582
aF10.170090675354004
aF10.119239807128906
aF10.068643569946289
aF10.018301010131836
aF9.968209266662598
aF100.0
aF100.0
aF100.0
aF99.5
aF99.00250244140625
aF98.50748443603516
aF98.01495361328125
aF97.52487182617188
aF97.0372543334961
aF96.55206298828125
aF96.06930541992188
aF95.58895874023438
aF95.11101531982422
aF94.63545989990234
aF94.16227722167969
aF93.69146728515625
aF93.22301483154297
aF92.75689697265625
aF92.2931137084961
aF91.83164978027344
aF91.37248992919922
aF90.9156265258789
aF90.46104431152344
aF90.00874328613281
aF89.55870056152344
aF89.11090850830078
aF88.66535186767578
aF88.2220230102539
aF87.78091430664062
aF87.34201049804688
aF86.9052963256836
aF86.47077178955078
aF86.03842163085938
aF85.60823059082031
aF85.18018341064453
aF84.75428771972656
aF84.33051300048828
aF83.90885925292969
aF83.48931884765625
aF83.07186889648438
aF82.65650939941406
aF82.24322509765625
aF81.8320083618164
aF81.4228515625
aF81.01573944091797
aF80.61065673828125
aF80.20760345458984
aF79.80656433105469
aF79.40753173828125
aF79.010498046875
aF78.61544799804688
aF78.22236633300781
aF77.83125305175781
aF77.44210052490234
aF77.05488586425781
aF76.66961669921875
aF76.28627014160156
aF75.90483856201172
aF75.52531433105469
aF75.1476821899414
aF74.77194213867188
aF74.39808654785156
aF74.02609252929688
aF73.65596771240234
aF73.28768920898438
aF72.92124938964844
aF72.556640625
aF72.19385528564453
aF71.8328857421875
aF71.47372436523438
aF71.1163558959961
aF70.76077270507812
aF70.40696716308594
aF70.054931640625
aF69.70465850830078
aF69.35614013671875
aF69.00935363769531
aF68.664306640625
aF68.32099151611328
aF67.97938537597656
aF67.63948822021484
aF67.30128479003906
aF66.96478271484375
aF66.62995910644531
aF66.29680633544922
aF65.96532440185547
aF65.635498046875
aF65.30731964111328
aF64.98078155517578
aF64.65587615966797
aF64.33260345458984
aF64.01094055175781
aF63.69088363647461
aF63.37242889404297
aF63.055564880371094
aF62.74028778076172
aF62.42658615112305
aF62.11445236206055
aF61.80388259887695
aF61.4948616027832
aF61.1873893737793
aF60.88145065307617
aF60.57704544067383
aF60.2741584777832
aF59.97278594970703
aF59.67292404174805
aF59.37455749511719
aF59.07768630981445
aF58.78229904174805
aF58.48838806152344
aF58.195945739746094
aF57.904964447021484
aF57.615440368652344
aF57.327362060546875
aF57.04072570800781
aF56.755523681640625
aF56.471744537353516
aF56.18938446044922
aF55.90843963623047
aF55.62889862060547
aF55.35075378417969
aF55.073997497558594
aF54.79862976074219
aF54.524635314941406
aF54.252010345458984
aF53.980751037597656
aF53.71084976196289
aF53.44229507446289
aF53.17508316040039
aF52.90920639038086
aF52.64466094970703
aF52.381439208984375
aF52.119529724121094
aF51.85893249511719
aF51.599639892578125
aF51.34164047241211
aF51.084930419921875
aF50.829505920410156
aF50.57535934448242
aF50.32248306274414
aF50.07086944580078
aF49.82051467895508
aF49.571414947509766
aF49.32355499267578
aF49.07693862915039
aF48.8315544128418
aF48.58739471435547
aF48.344459533691406
aF48.10273742675781
aF47.86222457885742
aF47.6229133605957
aF47.384796142578125
aF47.14787292480469
aF46.91213607788086
aF46.677574157714844
aF46.44418716430664
aF46.21196365356445
aF45.98090362548828
aF45.750999450683594
aF45.522247314453125
aF45.29463577270508
aF45.06816101074219
aF44.84281921386719
aF44.61860656738281
aF44.395511627197266
aF44.17353439331055
aF43.952667236328125
aF43.732906341552734
aF43.51424026489258
aF43.296669006347656
aF43.08018493652344
aF42.864784240722656
aF42.65045928955078
aF42.43721008300781
aF42.22502136230469
aF42.01389694213867
aF41.803829193115234
aF41.594810485839844
aF41.38683319091797
aF41.179901123046875
aF40.9739990234375
aF40.76913070678711
aF40.565284729003906
aF40.362457275390625
aF40.160648345947266
aF39.959842681884766
aF39.76004409790039
aF39.56124496459961
aF39.36343765258789
aF39.166622161865234
aF38.970787048339844
aF38.77593231201172
aF38.582054138183594
aF38.38914489746094
aF38.19719696044922
aF38.00621032714844
aF37.81618118286133
aF37.627098083496094
aF37.43896484375
aF37.25177001953125
aF37.06550979614258
aF36.880184173583984
aF36.69578170776367
aF36.51230239868164
aF36.329742431640625
aF36.148094177246094
aF35.96735382080078
aF35.78751754760742
aF35.608577728271484
aF35.43053436279297
aF35.25338363647461
aF35.07711410522461
aF34.901729583740234
aF34.72722244262695
aF34.553585052490234
aF34.38081741333008
aF34.20891189575195
aF34.03786849975586
aF33.867679595947266
aF33.698341369628906
aF33.529850006103516
aF33.36220169067383
aF33.19538879394531
aF33.02941131591797
ass.